(i__main__
build
p0
(dp1
S'cutoff'
p2
(lp3
(lp4
S'III-T Himachal Pradesh'
p5
aS'Computer Science & Eng. (4 yrs; BTech)'
p6
aS'AI'
p7
aS'21099'
p8
aS'28694'
p9
aa(lp10
S'III-T Surat'
p11
aS'Computer Science & Eng. (4 yrs; BTech)'
p12
aS'AI'
p13
aS'11361'
p14
aS'28616'
p15
aa(lp16
S'IIITM Gwalior'
p17
aS'Integrated B. Tech.(IT) & M. Tech (IT) (5 yrs; Integrated B. Tech. & M. Tech. /MBA)'
p18
aS'AI'
p19
aS'12823'
p20
aS'17772'
p21
aa(lp22
S'III-T Manipur'
p23
aS'Electronics & Communication Eng. (4 yrs; BTech)'
p24
aS'AI'
p25
aS'37457'
p26
aS'39507'
p27
aa(lp28
S'III-T  Nagpur'
p29
aS'Electronics & Communication Eng. (4 yrs; BTech)'
p30
aS'AI'
p31
aS'15753'
p32
aS'34022'
p33
aa(lp34
S'III-T Allahabad'
p35
aS'Electronics & Communication Eng. (4 yrs; BTech)'
p36
aS'AI'
p37
aS'6830'
p38
aS'10782'
p39
aa(lp40
S'III-T Andhra Pradesh'
p41
aS'Electronics & Communication Eng. (4 yrs; BTech)'
p42
aS'AI'
p43
aS'16829'
p44
aS'27590'
p45
aa(lp46
S'III-T Kilohrad'
p47
aS'IT (4 yrs; BTech)'
p48
aS'AI'
p49
aS'22061'
p50
aS'26817'
p51
aa(lp52
S'III-T Allahabad'
p53
aS'IT & M.Tech (IT) Spl. Robotics (5 yrs; B|MTech(Dual))'
p54
aS'AI'
p55
aS'6372'
p56
aS'6767'
p57
aa(lp58
S'III-T Allahabad'
p59
aS'Electronics & Communication Eng. & M.Tech (ECE) Spl. (Micro Electronics) (5 yrs; B|MTech(Dual))'
p60
aS'AI'
p61
aS'7529'
p62
aS'11367'
p63
aa(lp64
S'III-T Allahabad'
p65
aS'IT & M.Tech (IT) Spl. Wireless Communication Eng. (5 yrs; B|MTech(Dual))'
p66
aS'AI'
p67
aS'6814'
p68
aS'7057'
p69
aa(lp70
S'III-T Vadodara'
p71
aS'IT (4 yrs; BTech)'
p72
aS'AI'
p73
aS'22947'
p74
aS'31351'
p75
aa(lp76
S'III-T  Ranchi'
p77
aS'Computer Science & Eng. (4 yrs; BTech)'
p78
aS'AI'
p79
aS'18478'
p80
aS'31169'
p81
aa(lp82
S'III-T Manipur'
p83
aS'Computer Science & Eng. (4 yrs; BTech)'
p84
aS'AI'
p85
aS'24055'
p86
aS'37474'
p87
aa(lp88
S'III-T Bhagalpur'
p89
aS'Computer Science & Eng. (4 yrs; BTech)'
p90
aS'AI'
p91
aS'21406'
p92
aS'36903'
p93
aa(lp94
S'IIITM Gwalior'
p95
aS'Computer Science & Eng. (4 yrs; BTech)'
p96
aS'AI'
p97
aS'8396'
p98
aS'12736'
p99
aa(lp100
S'III-T Kilohrad'
p101
aS'Computer Science & Eng. (4 yrs; BTech)'
p102
aS'AI'
p103
aS'15542'
p104
aS'21979'
p105
aa(lp106
S'III-T Allahabad'
p107
aS'IT (4 yrs; BTech)'
p108
aS'AI'
p109
aS'2624'
p110
aS'6259'
p111
aa(lp112
S'IIITDM Kancheepuram'
p113
aS'Computer Eng. (4 yrs; BTech)'
p114
aS'AI'
p115
aS'8669'
p116
aS'15995'
p117
aa(lp118
S'III-T Dharwad'
p119
aS'Computer Science & Eng. (4 yrs; BTech)'
p120
aS'AI'
p121
aS'18904'
p122
aS'29813'
p123
aa(lp124
S'III-T D&M Kurnool'
p125
aS'Mechanical Eng. with specialization in D&M (4 yrs; BTech)'
p126
aS'AI'
p127
aS'23451'
p128
aS'35947'
p129
aa(lp130
S'IIITDM Jabalpur'
p131
aS'Computer Science & Eng. (4 yrs; BTech)'
p132
aS'AI'
p133
aS'8611'
p134
aS'16542'
p135
aa(lp136
S'III-T Kottayam'
p137
aS'Computer Science & Eng. (4 yrs; BTech)'
p138
aS'AI'
p139
aS'17084'
p140
aS'33239'
p141
aa(lp142
S'III-T  Nagpur'
p143
aS'Computer Science & Eng. (4 yrs; BTech)'
p144
aS'AI'
p145
aS'13961'
p146
aS'28998'
p147
aa(lp148
S'III-T Lucknow'
p149
aS'IT (4 yrs; BTech)'
p150
aS'AI'
p151
aS'14853'
p152
aS'24230'
p153
aa(lp154
S'III-T Allahabad'
p155
aS'IT & M.Tech (IT) Spl. (Human Computer Interaction) (5 yrs; B|MTech(Dual))'
p156
aS'AI'
p157
aS'6640'
p158
aS'7134'
p159
aa(lp160
S'III-T Dharwad'
p161
aS'Electronics & Communication Eng. (4 yrs; BTech)'
p162
aS'AI'
p163
aS'22511'
p164
aS'33432'
p165
aa(lp166
S'III-T D&M Kurnool'
p167
aS'Computer Eng. (4 yrs; BTech)'
p168
aS'AI'
p169
aS'23017'
p170
aS'32845'
p171
aa(lp172
S'IIITDM Kancheepuram'
p173
aS'Electronics & Communication Eng. with specialization in D&M (4 yrs; BTech)'
p174
aS'AI'
p175
aS'12843'
p176
aS'19961'
p177
aa(lp178
S'III-T  Ranchi'
p179
aS'Electronics & Communication Eng. (4 yrs; BTech)'
p180
aS'AI'
p181
aS'19757'
p182
aS'35748'
p183
aa(lp184
S'III-T Allahabad'
p185
aS'IT & M.Tech (IT) Spl. (Cyber Law & Information Security) (5 yrs; B|MTech(Dual))'
p186
aS'AI'
p187
aS'6401'
p188
aS'7052'
p189
aa(lp190
S'III-T Allahabad'
p191
aS'IT & M.Tech (IT) Spl. (Intellegent System) (5 yrs; B|MTech(Dual))'
p192
aS'AI'
p193
aS'6411'
p194
aS'6798'
p195
aa(lp196
S'III-T Andhra Pradesh'
p197
aS'Computer Science & Eng. (4 yrs; BTech)'
p198
aS'AI'
p199
aS'9784'
p200
aS'23084'
p201
aa(lp202
S'IIITDM Jabalpur'
p203
aS'Electronics & Communication Eng. (4 yrs; BTech)'
p204
aS'AI'
p205
aS'11587'
p206
aS'23714'
p207
aa(lp208
S'III-T Kota'
p209
aS'Electronics & Communication Eng. (4 yrs; BTech)'
p210
aS'AI'
p211
aS'18882'
p212
aS'30321'
p213
aa(lp214
S'III-T Kalyani'
p215
aS'Computer Science & Eng. (4 yrs; BTech)'
p216
aS'AI'
p217
aS'23433'
p218
aS'34298'
p219
aa(lp220
S'III-T Himachal Pradesh'
p221
aS'Electronics & Communication Eng. (4 yrs; BTech)'
p222
aS'AI'
p223
aS'30170'
p224
aS'35607'
p225
aa(lp226
S'IIITDM Kancheepuram'
p227
aS'Smart Manufacturing (4 yrs; BTech)'
p228
aS'AI'
p229
aS'21789'
p230
aS'33350'
p231
aa(lp232
S'III-T Bhopal'
p233
aS'IT (4 yrs; BTech)'
p234
aS'AI'
p235
aS'24362'
p236
aS'33597'
p237
aa(lp238
S'III-T Allahabad'
p239
aS'IT & M.Tech (IT) Spl. Bio-Informatics (5 yrs; B|MTech(Dual))'
p240
aS'AI'
p241
aS'7197'
p242
aS'7418'
p243
aa(lp244
S'IIITM Gwalior'
p245
aS'Integrated B. Tech.(IT) & MBA (5 yrs; Integrated B. Tech. & M. Tech. /MBA)'
p246
aS'AI'
p247
aS'12872'
p248
aS'22199'
p249
aa(lp250
S'IIITDM Kancheepuram'
p251
aS'Mechanical Eng. with specialization in D&M + M. Tech - Product Design (5 yrs; B|MTech(Dual))'
p252
aS'AI'
p253
aS'13815'
p254
aS'32333'
p255
aa(lp256
S'IIITDM Kancheepuram'
p257
aS'Computer Eng. (5 yrs; B|MTech(Dual))'
p258
aS'AI'
p259
aS'16557'
p260
aS'23128'
p261
aa(lp262
S'III-T Himachal Pradesh'
p263
aS'IT (4 yrs; BTech)'
p264
aS'AI'
p265
aS'27713'
p266
aS'33566'
p267
aa(lp268
S'III-T Tiruchirappalli'
p269
aS'Computer Science & Eng. (4 yrs; BTech)'
p270
aS'AI'
p271
aS'12516'
p272
aS'23021'
p273
aa(lp274
S'IIITDM Kancheepuram'
p275
aS'Electronics & Communication Eng. with specialization in D&M + M. Tech - VLSI & Electronic Systems Design (5 yrs; B|MTech(Dual))'
p276
aS'AI'
p277
aS'19632'
p278
aS'26609'
p279
aa(lp280
S'IIITDM Kancheepuram'
p281
aS'Mechanical Eng. with specialization in D&M + M. Tech - Advanced Manufacturing (5 yrs; B|MTech(Dual))'
p282
aS'AI'
p283
aS'27453'
p284
aS'33612'
p285
aa(lp286
S'IIITDM Kancheepuram'
p287
aS'Electronics & Communication Eng. with specialization in D&M + M. Tech - Signal Processing & Communication Systems Design (5 yrs; B|MTech(Dual))'
p288
aS'AI'
p289
aS'17564'
p290
aS'28979'
p291
aa(lp292
S'III-T Bhagalpur'
p293
aS'Electronics & Communication Eng. (4 yrs; BTech)'
p294
aS'AI'
p295
aS'36155'
p296
aS'39113'
p297
aa(lp298
S'III-T Guwahati'
p299
aS'Computer Science & Eng. (4 yrs; BTech)'
p300
aS'AI'
p301
aS'6514'
p302
aS'25867'
p303
aa(lp304
S'III-T Allahabad'
p305
aS'IT & M.Tech (IT) Spl. Software Eng. (5 yrs; B|MTech(Dual))'
p306
aS'AI'
p307
aS'6264'
p308
aS'6336'
p309
aa(lp310
S'IIITDM Jabalpur'
p311
aS'Mechanical Eng. (4 yrs; BTech)'
p312
aS'AI'
p313
aS'17619'
p314
aS'29314'
p315
aa(lp316
S'III-T Bhopal'
p317
aS'Computer Science & Eng. (4 yrs; BTech)'
p318
aS'AI'
p319
aS'16119'
p320
aS'30681'
p321
aa(lp322
S'III-T Kilohrad'
p323
aS'Electronics & Communication Eng. (4 yrs; BTech)'
p324
aS'AI'
p325
aS'22856'
p326
aS'31372'
p327
aa(lp328
S'III-T Vadodara'
p329
aS'Computer Science & Eng. (4 yrs; BTech)'
p330
aS'AI'
p331
aS'12481'
p332
aS'26827'
p333
aa(lp334
S'III-T  Pune'
p335
aS'Computer Science & Eng. (4 yrs; BTech)'
p336
aS'AI'
p337
aS'5092'
p338
aS'24754'
p339
aa(lp340
S'III-T Kota'
p341
aS'Computer Science & Eng. (4 yrs; BTech)'
p342
aS'AI'
p343
aS'13869'
p344
aS'21853'
p345
aa(lp346
S'III-T Allahabad'
p347
aS'IT & MBA (IT) (5 yrs; BTech & MBA (Dual))'
p348
aS'AI'
p349
aS'7381'
p350
aS'8220'
p351
aa(lp352
S'III-T  Pune'
p353
aS'Electronics & Communication Eng. (4 yrs; BTech)'
p354
aS'AI'
p355
aS'14867'
p356
aS'30704'
p357
aa(lp358
S'III-T Guwahati'
p359
aS'Electronics & Communication Eng. (4 yrs; BTech)'
p360
aS'AI'
p361
aS'26066'
p362
aS'32112'
p363
aa(lp364
S'III-T Tiruchirappalli'
p365
aS'Electronics & Communication Eng. (4 yrs; BTech)'
p366
aS'AI'
p367
aS'21328'
p368
aS'27719'
p369
aa(lp370
S'III-T Surat'
p371
aS'Electronics & Communication Eng. (4 yrs; BTech)'
p372
aS'AI'
p373
aS'25346'
p374
aS'33436'
p375
aa(lp376
S'III-T Bhopal'
p377
aS'Electronics & Communication Eng. (4 yrs; BTech)'
p378
aS'AI'
p379
aS'29237'
p380
aS'34564'
p381
aa(lp382
S'IIITDM Kancheepuram'
p383
aS'Mechanical Eng. with specialization in D&M (4 yrs; BTech)'
p384
aS'AI'
p385
aS'14250'
p386
aS'26086'
p387
aa(lp388
S'III-T D&M Kurnool'
p389
aS'Electronics & Communication Eng. with specialization in D&M (4 yrs; BTech)'
p390
aS'AI'
p391
aS'26859'
p392
aS'34645'
p393
aa(lp394
S'III-T Allahabad'
p395
aS'Electronics & Communication Eng. & MBA (IT) (5 yrs; BTech & MBA (Dual))'
p396
aS'AI'
p397
aS'11133'
p398
aS'12063'
p399
aa(lp400
S'III-T Allahabad'
p401
aS'Electronics & Communication Eng. & M.Tech. Bio-Medical Eng. (5 yrs; B|MTech(Dual))'
p402
aS'AI'
p403
aS'12745'
p404
aS'14259'
p405
aasS'name'
p406
S'c7'
p407
sb.(i__main__
build
p0
(dp1
S'cutoff'
p2
(lp3
(lp4
S'NIT Rourkela'
p5
aS'Mechanical Eng.(4 yrs; BTech)'
p6
aS'HS'
p7
aS'6766'
p8
aS'16679'
p9
aa(lp10
S'NIT Tiruchirappalli'
p11
aS'Computer Science & Eng.(4 yrs; BTech)'
p12
aS'OS'
p13
aS'324'
p14
aS'2120'
p15
aa(lp16
S'NIT Jamshedpur'
p17
aS'Electronics & Communication Eng.(4 yrs; BTech)'
p18
aS'HS'
p19
aS'13879'
p20
aS'22335'
p21
aa(lp22
S'NIT andhra Pradesh'
p23
aS'Metallurgical & Materials Eng.(4 yrs; BTech)'
p24
aS'OS'
p25
aS'29428'
p26
aS'35008'
p27
aa(lp28
S'NIT andhra Pradesh'
p29
aS'Bio Technology (4 yrs; BTech)'
p30
aS'OS'
p31
aS'33698'
p32
aS'36594'
p33
aa(lp34
S'NIT Puducherry'
p35
aS'Mechanical Eng.(4 yrs; BTech)'
p36
aS'OS'
p37
aS'15076'
p38
aS'20873'
p39
aa(lp40
S'Sardar Vallabhbhai NIT Surat'
p41
aS'Chemical Eng.(4 yrs; BTech)'
p42
aS'OS'
p43
aS'13023'
p44
aS'19862'
p45
aa(lp46
S'NIT Karnataka'
p47
aS'Electrical & Electronics Eng.(4 yrs; BTech)'
p48
aS'HS'
p49
aS'7571'
p50
aS'14037'
p51
aa(lp52
S'NIT Rourkela'
p53
aS'Civil Eng.(4 yrs; BTech)'
p54
aS'OS'
p55
aS'4791'
p56
aS'16316'
p57
aa(lp58
S'NIT Calicut'
p59
aS'Production Eng.(4 yrs; BTech)'
p60
aS'HS'
p61
aS'22913'
p62
aS'34777'
p63
aa(lp64
S'NIT Sikkim'
p65
aS'Bio Technology (4 yrs; BTech)'
p66
aS'OS'
p67
aS'39078'
p68
aS'40827'
p69
aa(lp70
S'NIT Mizoram'
p71
aS'Civil Eng.(4 yrs; BTech)'
p72
aS'HS'
p73
aS'394751'
p74
aS'517186'
p75
aa(lp76
S'NIT Silchar'
p77
aS'Electronics & Communication Eng.(4 yrs; BTech)'
p78
aS'OS'
p79
aS'12468'
p80
aS'23255'
p81
aa(lp82
S'NIT Rourkela'
p83
aS'Mining Eng.(4 yrs; BTech)'
p84
aS'OS'
p85
aS'20515'
p86
aS'25473'
p87
aa(lp88
S'NIT Srinagar'
p89
aS'Computer Science & Eng.(4 yrs; BTech)'
p90
aS'OS'
p91
aS'21303'
p92
aS'29297'
p93
aa(lp94
S'NIT Sikkim'
p95
aS'Computer Science & Eng.(4 yrs; BTech)'
p96
aS'OS'
p97
aS'19770'
p98
aS'27163'
p99
aa(lp100
S'NIT Calicut'
p101
aS'Chemical Eng.(4 yrs; BTech)'
p102
aS'HS'
p103
aS'8768'
p104
aS'32892'
p105
aa(lp106
S'NIT Kurukshetra'
p107
aS'Computer Eng.(4 yrs; BTech)'
p108
aS'OS'
p109
aS'5157'
p110
aS'8092'
p111
aa(lp112
S'NIT Warangal'
p113
aS'Electrical & Electronics Eng.(4 yrs; BTech)'
p114
aS'OS'
p115
aS'3891'
p116
aS'7236'
p117
aa(lp118
S'NIT Patna'
p119
aS'Electrical Eng.(4 yrs; BTech)'
p120
aS'OS'
p121
aS'16539'
p122
aS'24955'
p123
aa(lp124
S'NIT Durgapur'
p125
aS'Bio Technology (4 yrs; BTech)'
p126
aS'HS'
p127
aS'29633'
p128
aS'39708'
p129
aa(lp130
S'NIT Tiruchirappalli'
p131
aS'Production Eng.(4 yrs; BTech)'
p132
aS'HS'
p133
aS'13392'
p134
aS'21896'
p135
aa(lp136
S'NIT Rourkela'
p137
aS'Bio Medical Eng.(4 yrs; BTech)'
p138
aS'OS'
p139
aS'20206'
p140
aS'30585'
p141
aa(lp142
S'NIT Agartala'
p143
aS'Electronics & Communication Eng.(4 yrs; BTech)'
p144
aS'OS'
p145
aS'20555'
p146
aS'27639'
p147
aa(lp148
S'NIT Srinagar'
p149
aS'Information Technology (4 yrs; BTech)'
p150
aS'HS'
p151
aS'55360'
p152
aS'91381'
p153
aa(lp154
S'NIT Calicut'
p155
aS'Bio Technology (4 yrs; BTech)'
p156
aS'HS'
p157
aS'24108'
p158
aS'33271'
p159
aa(lp160
S'Dr. B R Ambedkar NIT Jalandhar'
p161
aS'Electronics & Communication Eng.(4 yrs; BTech)'
p162
aS'OS'
p163
aS'10534'
p164
aS'15964'
p165
aa(lp166
S'NIT Hamirpur'
p167
aS'Electronics & Communication Eng.(4 yrs; BTech)'
p168
aS'OS'
p169
aS'9330'
p170
aS'17668'
p171
aa(lp172
S'Motilal Nehru NIT Allahabad'
p173
aS'Electrical Eng.(4 yrs; BTech)'
p174
aS'HS'
p175
aS'4684'
p176
aS'9366'
p177
aa(lp178
S'Malaviya NIT Jaipur'
p179
aS'Chemical Eng.(4 yrs; BTech)'
p180
aS'HS'
p181
aS'12127'
p182
aS'18919'
p183
aa(lp184
S'Sardar Vallabhbhai NIT Surat'
p185
aS'Civil Eng.(4 yrs; BTech)'
p186
aS'OS'
p187
aS'13778'
p188
aS'19298'
p189
aa(lp190
S'NIT Hamirpur'
p191
aS'Computer Science & Eng.(4 yrs; BTech)'
p192
aS'HS'
p193
aS'7767'
p194
aS'22789'
p195
aa(lp196
S'NIT Raipur'
p197
aS'Mining Eng.(4 yrs; BTech)'
p198
aS'HS'
p199
aS'38250'
p200
aS'60171'
p201
aa(lp202
S'NIT Jamshedpur'
p203
aS'Electronics & Communication Eng.(4 yrs; BTech)'
p204
aS'OS'
p205
aS'10975'
p206
aS'15475'
p207
aa(lp208
S'Motilal Nehru NIT Allahabad'
p209
aS'Civil Eng.(4 yrs; BTech)'
p210
aS'OS'
p211
aS'11380'
p212
aS'15607'
p213
aa(lp214
S'NIT Uttarakh&'
p215
aS'Civil Eng.(4 yrs; BTech)'
p216
aS'HS'
p217
aS'38809'
p218
aS'53428'
p219
aa(lp220
S'NIT Raipur'
p221
aS'Civil Eng.(4 yrs; BTech)'
p222
aS'HS'
p223
aS'21708'
p224
aS'45221'
p225
aa(lp226
S'NIT Uttarakh&'
p227
aS'Computer Science & Eng.(4 yrs; BTech)'
p228
aS'OS'
p229
aS'11984'
p230
aS'18639'
p231
aa(lp232
S'NIT Calicut'
p233
aS'Mechanical Eng.(4 yrs; BTech)'
p234
aS'HS'
p235
aS'5978'
p236
aS'17768'
p237
aa(lp238
S'NIT Raipur'
p239
aS'Electronics & Telecommunication Eng.(4 yrs; BTech)'
p240
aS'HS'
p241
aS'27254'
p242
aS'42026'
p243
aa(lp244
S'NIT Kurukshetra'
p245
aS'Electronics & Communication Eng.(4 yrs; BTech)'
p246
aS'OS'
p247
aS'9911'
p248
aS'14060'
p249
aa(lp250
S'NIT Warangal'
p251
aS'Electrical & Electronics Eng.(4 yrs; BTech)'
p252
aS'AP'
p253
aS'8700'
p254
aS'9776'
p255
aa(lp256
S'NIT Karnataka'
p257
aS'Mechanical Eng.(4 yrs; BTech)'
p258
aS'HS'
p259
aS'5583'
p260
aS'17402'
p261
aa(lp262
S'NIT Agartala'
p263
aS'Chemical Eng.(4 yrs; BTech)'
p264
aS'OS'
p265
aS'22480'
p266
aS'36554'
p267
aa(lp268
S'Malaviya NIT Jaipur'
p269
aS'Electrical Eng.(4 yrs; BTech)'
p270
aS'OS'
p271
aS'9706'
p272
aS'13227'
p273
aa(lp274
S'NIT Karnataka'
p275
aS'Electronics & Communication Eng.(4 yrs; BTech)'
p276
aS'OS'
p277
aS'3182'
p278
aS'5539'
p279
aa(lp280
S'NIT Srinagar'
p281
aS'Electronics & Communication Eng.(4 yrs; BTech)'
p282
aS'HS'
p283
aS'47812'
p284
aS'74736'
p285
aa(lp286
S'NIT Karnataka'
p287
aS'Metallurgical & Materials Eng.(4 yrs; BTech)'
p288
aS'HS'
p289
aS'19529'
p290
aS'28700'
p291
aa(lp292
S'NIT Warangal'
p293
aS'Bio Technology (4 yrs; BTech)'
p294
aS'OS'
p295
aS'15528'
p296
aS'22824'
p297
aa(lp298
S'NIT andhra Pradesh'
p299
aS'Chemical Eng.(4 yrs; BTech)'
p300
aS'HS'
p301
aS'24046'
p302
aS'34396'
p303
aa(lp304
S'NIT andhra Pradesh'
p305
aS'Electronics & Communication Eng.(4 yrs; BTech)'
p306
aS'OS'
p307
aS'12243'
p308
aS'22993'
p309
aa(lp310
S'NIT Raipur'
p311
aS'Bio Medical Eng.(4 yrs; BTech)'
p312
aS'HS'
p313
aS'58842'
p314
aS'77223'
p315
aa(lp316
S'NIT Kurukshetra'
p317
aS'Civil Eng.(4 yrs; BTech)'
p318
aS'HS'
p319
aS'3491'
p320
aS'25045'
p321
aa(lp322
S'NIT Meghalaya'
p323
aS'Computer Science & Eng.(4 yrs; BTech)'
p324
aS'HS'
p325
aS'56089'
p326
aS'61188'
p327
aa(lp328
S'NIT andhra Pradesh'
p329
aS'Computer Science & Eng.(4 yrs; BTech)'
p330
aS'HS'
p331
aS'8951'
p332
aS'21243'
p333
aa(lp334
S'Sardar Vallabhbhai NIT Surat'
p335
aS'Electronics & Communication Eng.(4 yrs; BTech)'
p336
aS'HS'
p337
aS'7461'
p338
aS'22556'
p339
aa(lp340
S'NIT Uttarakh&'
p341
aS'Computer Science & Eng.(4 yrs; BTech)'
p342
aS'HS'
p343
aS'16274'
p344
aS'32351'
p345
aa(lp346
S'NIT Raipur'
p347
aS'Electronics & Telecommunication Eng.(4 yrs; BTech)'
p348
aS'OS'
p349
aS'13291'
p350
aS'18806'
p351
aa(lp352
S'Visvesvaraya NIT Nagpur'
p353
aS'Mining Eng.(4 yrs; BTech)'
p354
aS'OS'
p355
aS'19165'
p356
aS'30392'
p357
aa(lp358
S'NIT Karnataka'
p359
aS'Mechanical Eng.(4 yrs; BTech)'
p360
aS'OS'
p361
aS'2906'
p362
aS'8292'
p363
aa(lp364
S'NIT Raipur'
p365
aS'Civil Eng.(4 yrs; BTech)'
p366
aS'OS'
p367
aS'16857'
p368
aS'26749'
p369
aa(lp370
S'NIT Calicut'
p371
aS'Mechanical Eng.(4 yrs; BTech)'
p372
aS'OS'
p373
aS'8074'
p374
aS'13229'
p375
aa(lp376
S'NIT Karnataka'
p377
aS'Chemical Eng.(4 yrs; BTech)'
p378
aS'HS'
p379
aS'13347'
p380
aS'20826'
p381
aa(lp382
S'NIT Rourkela'
p383
aS'Electrical Eng.(4 yrs; BTech)'
p384
aS'HS'
p385
aS'5096'
p386
aS'18186'
p387
aa(lp388
S'Motilal Nehru NIT Allahabad'
p389
aS'Civil Eng.(4 yrs; BTech)'
p390
aS'HS'
p391
aS'8617'
p392
aS'13031'
p393
aa(lp394
S'NIT Manipur'
p395
aS'Electrical Eng.(4 yrs; BTech)'
p396
aS'HS'
p397
aS'175543'
p398
aS'632713'
p399
aa(lp400
S'NIT Tiruchirappalli'
p401
aS'Metallurgical & Materials Eng.(4 yrs; BTech)'
p402
aS'HS'
p403
aS'14402'
p404
aS'23535'
p405
aa(lp406
S'NIT Warangal'
p407
aS'Mechanical Eng.(4 yrs; BTech)'
p408
aS'AP'
p409
aS'7755'
p410
aS'9975'
p411
aa(lp412
S'Visvesvaraya NIT Nagpur'
p413
aS'Chemical Eng.(4 yrs; BTech)'
p414
aS'OS'
p415
aS'15594'
p416
aS'22484'
p417
aa(lp418
S'NIT Jamshedpur'
p419
aS'Production & Industrial Eng.(4 yrs; BTech)'
p420
aS'HS'
p421
aS'32469'
p422
aS'38321'
p423
aa(lp424
S'NIT Hamirpur'
p425
aS'Mechanical Eng.(4 yrs; BTech)'
p426
aS'OS'
p427
aS'13402'
p428
aS'19521'
p429
aa(lp430
S'NIT Agartala'
p431
aS'Chemical Eng.(4 yrs; BTech)'
p432
aS'HS'
p433
aS'197745'
p434
aS'347842'
p435
aa(lp436
S'NIT Karnataka'
p437
aS'Computer Eng.(4 yrs; BTech)'
p438
aS'HS'
p439
aS'306'
p440
aS'5173'
p441
aa(lp442
S'NIT Silchar'
p443
aS'Computer Science & Eng.(4 yrs; BTech)'
p444
aS'OS'
p445
aS'10856'
p446
aS'16790'
p447
aa(lp448
S'NIT Karnataka'
p449
aS'Metallurgical & Materials Eng.(4 yrs; BTech)'
p450
aS'OS'
p451
aS'14681'
p452
aS'18158'
p453
aa(lp454
S'NIT Puducherry'
p455
aS'Civil Eng.(4 yrs; BTech)'
p456
aS'OS'
p457
aS'21726'
p458
aS'26929'
p459
aa(lp460
S'NIT Karnataka'
p461
aS'Electronics & Communication Eng.(4 yrs; BTech)'
p462
aS'HS'
p463
aS'1552'
p464
aS'7875'
p465
aa(lp466
S'NIT Srinagar'
p467
aS'Electronics & Communication Eng.(4 yrs; BTech)'
p468
aS'OS'
p469
aS'22799'
p470
aS'36627'
p471
aa(lp472
S'NIT Mizoram'
p473
aS'Civil Eng.(4 yrs; BTech)'
p474
aS'OS'
p475
aS'36915'
p476
aS'39797'
p477
aa(lp478
S'Visvesvaraya NIT Nagpur'
p479
aS'Computer Science & Eng.(4 yrs; BTech)'
p480
aS'OS'
p481
aS'3921'
p482
aS'5901'
p483
aa(lp484
S'NIT andhra Pradesh'
p485
aS'Chemical Eng.(4 yrs; BTech)'
p486
aS'OS'
p487
aS'27510'
p488
aS'30477'
p489
aa(lp490
S'Dr. B R Ambedkar NIT Jalandhar'
p491
aS'Textile Technology (4 yrs; BTech)'
p492
aS'HS'
p493
aS'40607'
p494
aS'76237'
p495
aa(lp496
S'NIT Arunachal Pradesh'
p497
aS'Electrical Eng.(4 yrs; BTech)'
p498
aS'HS'
p499
aS'80998'
p500
aS'141261'
p501
aa(lp502
S'NIT andhra Pradesh'
p503
aS'Computer Science & Eng.(4 yrs; BTech)'
p504
aS'OS'
p505
aS'9318'
p506
aS'17448'
p507
aa(lp508
S'NIT Silchar'
p509
aS'Civil Eng.(4 yrs; BTech)'
p510
aS'OS'
p511
aS'23718'
p512
aS'32278'
p513
aa(lp514
S'NIT Warangal'
p515
aS'Bio Technology (4 yrs; BTech)'
p516
aS'AP'
p517
aS'24465'
p518
aS'27975'
p519
aa(lp520
S'NIT Calicut'
p521
aS'Production Eng.(4 yrs; BTech)'
p522
aS'OS'
p523
aS'16223'
p524
aS'24011'
p525
aa(lp526
S'NIT Kurukshetra'
p527
aS'Civil Eng.(4 yrs; BTech)'
p528
aS'OS'
p529
aS'12788'
p530
aS'22332'
p531
aa(lp532
S'NIT Raipur'
p533
aS'Computer Science & Eng.(4 yrs; BTech)'
p534
aS'OS'
p535
aS'6472'
p536
aS'12341'
p537
aa(lp538
S'Motilal Nehru NIT Allahabad'
p539
aS'Bio Technology (4 yrs; BTech)'
p540
aS'HS'
p541
aS'17203'
p542
aS'28202'
p543
aa(lp544
S'NIT Tiruchirappalli'
p545
aS'Computer Science & Eng.(4 yrs; BTech)'
p546
aS'HS'
p547
aS'1250'
p548
aS'4912'
p549
aa(lp550
S'NIT Raipur'
p551
aS'Bio Technology (4 yrs; BTech)'
p552
aS'HS'
p553
aS'51332'
p554
aS'71347'
p555
aa(lp556
S'NIT Rourkela'
p557
aS'Ceramic Eng.(4 yrs; BTech)'
p558
aS'OS'
p559
aS'26370'
p560
aS'32935'
p561
aa(lp562
S'NIT Durgapur'
p563
aS'Bio Technology (4 yrs; BTech)'
p564
aS'OS'
p565
aS'32105'
p566
aS'37002'
p567
aa(lp568
S'NIT Rourkela'
p569
aS'Mechanical Eng.(4 yrs; BTech)'
p570
aS'OS'
p571
aS'4709'
p572
aS'12898'
p573
aa(lp574
S'Sardar Vallabhbhai NIT Surat'
p575
aS'Chemical Eng.(4 yrs; BTech)'
p576
aS'HS'
p577
aS'16264'
p578
aS'26986'
p579
aa(lp580
S'NIT Rourkela'
p581
aS'Electrical Eng.(4 yrs; BTech)'
p582
aS'OS'
p583
aS'6776'
p584
aS'11825'
p585
aa(lp586
S'NIT Kurukshetra'
p587
aS'Production & Industrial Eng.(4 yrs; BTech)'
p588
aS'HS'
p589
aS'24452'
p590
aS'37132'
p591
aa(lp592
S'Visvesvaraya NIT Nagpur'
p593
aS'Mining Eng.(4 yrs; BTech)'
p594
aS'HS'
p595
aS'23150'
p596
aS'33966'
p597
aa(lp598
S'NIT Calicut'
p599
aS'Chemical Eng.(4 yrs; BTech)'
p600
aS'OS'
p601
aS'15531'
p602
aS'21692'
p603
aa(lp604
S'NIT Tiruchirappalli'
p605
aS'Electrical & Electronics Eng.(4 yrs; BTech)'
p606
aS'HS'
p607
aS'3899'
p608
aS'9937'
p609
aa(lp610
S'NIT Arunachal Pradesh'
p611
aS'Mechanical Eng.(4 yrs; BTech)'
p612
aS'HS'
p613
aS'94941'
p614
aS'154414'
p615
aa(lp616
S'NIT Kurukshetra'
p617
aS'Computer Eng.(4 yrs; BTech)'
p618
aS'HS'
p619
aS'3953'
p620
aS'7227'
p621
aa(lp622
S'NIT Srinagar'
p623
aS'Chemical Eng.(4 yrs; BTech)'
p624
aS'HS'
p625
aS'71496'
p626
aS'112366'
p627
aa(lp628
S'NIT Kurukshetra'
p629
aS'Information Technology (4 yrs; BTech)'
p630
aS'HS'
p631
aS'7298'
p632
aS'10082'
p633
aa(lp634
S'NIT Rourkela'
p635
aS'Electronics & Communication Eng.(4 yrs; BTech)'
p636
aS'HS'
p637
aS'4016'
p638
aS'13539'
p639
aa(lp640
S'NIT Rourkela'
p641
aS'Civil Eng.(4 yrs; BTech)'
p642
aS'HS'
p643
aS'16388'
p644
aS'25136'
p645
aa(lp646
S'NIT Raipur'
p647
aS'Metallurgical Eng.(4 yrs; BTech)'
p648
aS'HS'
p649
aS'49746'
p650
aS'63441'
p651
aa(lp652
S'Malaviya NIT Jaipur'
p653
aS'Electrical Eng.(4 yrs; BTech)'
p654
aS'HS'
p655
aS'4963'
p656
aS'9416'
p657
aa(lp658
S'NIT Srinagar'
p659
aS'Computer Science & Eng.(4 yrs; BTech)'
p660
aS'HS'
p661
aS'14125'
p662
aS'51993'
p663
aa(lp664
S'NIT Tiruchirappalli'
p665
aS'Production Eng.(4 yrs; BTech)'
p666
aS'OS'
p667
aS'10889'
p668
aS'16229'
p669
aa(lp670
S'NIT Warangal'
p671
aS'Electronics & Communication Eng.(4 yrs; BTech)'
p672
aS'AP'
p673
aS'5274'
p674
aS'5560'
p675
aa(lp676
S'NIT Karnataka'
p677
aS'Civil Eng.(4 yrs; BTech)'
p678
aS'OS'
p679
aS'5805'
p680
aS'14263'
p681
aa(lp682
S'Maulana Azad NIT Bhopal'
p683
aS'Electronics & Communication Eng.(4 yrs; BTech)'
p684
aS'HS'
p685
aS'9346'
p686
aS'13618'
p687
aa(lp688
S'NIT Kurukshetra'
p689
aS'Mechanical Eng.(4 yrs; BTech)'
p690
aS'HS'
p691
aS'10315'
p692
aS'19219'
p693
aa(lp694
S'NIT Mizoram'
p695
aS'Electronics & Communication Eng.(4 yrs; BTech)'
p696
aS'HS'
p697
aS'326139'
p698
aS'326139'
p699
aa(lp700
S'Dr. B R Ambedkar NIT Jalandhar'
p701
aS'Mechanical Eng.(4 yrs; BTech)'
p702
aS'OS'
p703
aS'14137'
p704
aS'18316'
p705
aa(lp706
S'NIT Agartala'
p707
aS'Production Eng.(4 yrs; BTech)'
p708
aS'HS'
p709
aS'311631'
p710
aS'472344'
p711
aa(lp712
S'Malaviya NIT Jaipur'
p713
aS'Chemical Eng.(4 yrs; BTech)'
p714
aS'OS'
p715
aS'12965'
p716
aS'20237'
p717
aa(lp718
S'NIT Silchar'
p719
aS'Civil Eng.(4 yrs; BTech)'
p720
aS'HS'
p721
aS'28405'
p722
aS'64790'
p723
aa(lp724
S'Dr. B R Ambedkar NIT Jalandhar'
p725
aS'Computer Science & Eng.(4 yrs; BTech)'
p726
aS'HS'
p727
aS'6002'
p728
aS'12195'
p729
aa(lp730
S'NIT Raipur'
p731
aS'Mining Eng.(4 yrs; BTech)'
p732
aS'OS'
p733
aS'30023'
p734
aS'35711'
p735
aa(lp736
S'NIT Uttarakh&'
p737
aS'Mechanical Eng.(4 yrs; BTech)'
p738
aS'HS'
p739
aS'22127'
p740
aS'46987'
p741
aa(lp742
S'Motilal Nehru NIT Allahabad'
p743
aS'Electronics & Communication Eng.(4 yrs; BTech)'
p744
aS'HS'
p745
aS'4522'
p746
aS'7889'
p747
aa(lp748
S'NIT Raipur'
p749
aS'Bio Technology (4 yrs; BTech)'
p750
aS'OS'
p751
aS'34443'
p752
aS'37769'
p753
aa(lp754
S'NIT Kurukshetra'
p755
aS'Production & Industrial Eng.(4 yrs; BTech)'
p756
aS'OS'
p757
aS'21096'
p758
aS'29194'
p759
aa(lp760
S'NIT Srinagar'
p761
aS'Chemical Eng.(4 yrs; BTech)'
p762
aS'OS'
p763
aS'36801'
p764
aS'42308'
p765
aa(lp766
S'NIT Jamshedpur'
p767
aS'Mechanical Eng.(4 yrs; BTech)'
p768
aS'HS'
p769
aS'14534'
p770
aS'22363'
p771
aa(lp772
S'NIT Patna'
p773
aS'Electronics & Communication Eng.(4 yrs; BTech)'
p774
aS'OS'
p775
aS'15027'
p776
aS'22035'
p777
aa(lp778
S'NIT Calicut'
p779
aS'Civil Eng.(4 yrs; BTech)'
p780
aS'OS'
p781
aS'15748'
p782
aS'20560'
p783
aa(lp784
S'NIT Mizoram'
p785
aS'Mechanical Eng.(4 yrs; BTech)'
p786
aS'HS'
p787
aS'547721'
p788
aS'803467'
p789
aa(lp790
S'NIT Durgapur'
p791
aS'Chemical Eng.(4 yrs; BTech)'
p792
aS'HS'
p793
aS'21141'
p794
aS'32483'
p795
aa(lp796
S'Maulana Azad NIT Bhopal'
p797
aS'Electrical Eng.(4 yrs; BTech)'
p798
aS'HS'
p799
aS'10747'
p800
aS'16819'
p801
aa(lp802
S'NIT Rourkela'
p803
aS'Electronics & Communication Eng.(4 yrs; BTech)'
p804
aS'OS'
p805
aS'5477'
p806
aS'8837'
p807
aa(lp808
S'NIT Durgapur'
p809
aS'Information Technology (4 yrs; BTech)'
p810
aS'OS'
p811
aS'9216'
p812
aS'12923'
p813
aa(lp814
S'NIT Agartala'
p815
aS'Bio Eng.(4 yrs; BTech)'
p816
aS'HS'
p817
aS'110381'
p818
aS'376538'
p819
aa(lp820
S'NIT Srinagar'
p821
aS'Electrical Eng.(4 yrs; BTech)'
p822
aS'HS'
p823
aS'41380'
p824
aS'67005'
p825
aa(lp826
S'NIT Puducherry'
p827
aS'Electronics & Communication Eng.(4 yrs; BTech)'
p828
aS'OS'
p829
aS'15838'
p830
aS'21118'
p831
aa(lp832
S'Maulana Azad NIT Bhopal'
p833
aS'Civil Eng.(4 yrs; BTech)'
p834
aS'OS'
p835
aS'12903'
p836
aS'20525'
p837
aa(lp838
S'NIT Mizoram'
p839
aS'Electronics & Communication Eng.(4 yrs; BTech)'
p840
aS'OS'
p841
aS'33028'
p842
aS'36146'
p843
aa(lp844
S'NIT Manipur'
p845
aS'Electronics & Communication Eng.(4 yrs; BTech)'
p846
aS'HS'
p847
aS'185576'
p848
aS'803202'
p849
aa(lp850
S'NIT Meghalaya'
p851
aS'Mechanical Eng.(4 yrs; BTech)'
p852
aS'HS'
p853
aS'80852'
p854
aS'89462'
p855
aa(lp856
S'Motilal Nehru NIT Allahabad'
p857
aS'Production & Industrial Eng.(4 yrs; BTech)'
p858
aS'OS'
p859
aS'15876'
p860
aS'20656'
p861
aa(lp862
S'NIT Agartala'
p863
aS'Computer Science & Eng.(4 yrs; BTech)'
p864
aS'HS'
p865
aS'27069'
p866
aS'144124'
p867
aa(lp868
S'NIT Rourkela'
p869
aS'Electronics & Instrumentation Eng.(4 yrs; BTech)'
p870
aS'OS'
p871
aS'8088'
p872
aS'13346'
p873
aa(lp874
S'NIT Rourkela'
p875
aS'Bio Technology (4 yrs; BTech)'
p876
aS'OS'
p877
aS'22908'
p878
aS'28407'
p879
aa(lp880
S'NIT Sikkim'
p881
aS'Mechanical Eng.(4 yrs; BTech)'
p882
aS'HS'
p883
aS'101022'
p884
aS'319129'
p885
aa(lp886
S'NIT Warangal'
p887
aS'Chemical Eng.(4 yrs; BTech)'
p888
aS'OS'
p889
aS'8241'
p890
aS'13933'
p891
aa(lp892
S'NIT Calicut'
p893
aS'Eng.Physics (4 yrs; BTech)'
p894
aS'HS'
p895
aS'19339'
p896
aS'28880'
p897
aa(lp898
S'NIT Meghalaya'
p899
aS'Electronics & Communication Eng.(4 yrs; BTech)'
p900
aS'OS'
p901
aS'23486'
p902
aS'29448'
p903
aa(lp904
S'Sardar Vallabhbhai NIT Surat'
p905
aS'Mechanical Eng.(4 yrs; BTech)'
p906
aS'HS'
p907
aS'7412'
p908
aS'17004'
p909
aa(lp910
S'NIT Uttarakh&'
p911
aS'Mechanical Eng.(4 yrs; BTech)'
p912
aS'OS'
p913
aS'19034'
p914
aS'26808'
p915
aa(lp916
S'Visvesvaraya NIT Nagpur'
p917
aS'Electrical & Electronics Eng.(4 yrs; BTech)'
p918
aS'HS'
p919
aS'8573'
p920
aS'15148'
p921
aa(lp922
S'Malaviya NIT Jaipur'
p923
aS'Civil Eng.(4 yrs; BTech)'
p924
aS'OS'
p925
aS'11906'
p926
aS'20427'
p927
aa(lp928
S'Motilal Nehru NIT Allahabad'
p929
aS'Mechanical Eng.(4 yrs; BTech)'
p930
aS'HS'
p931
aS'3520'
p932
aS'9633'
p933
aa(lp934
S'NIT Karnataka'
p935
aS'Mining Eng.(4 yrs; BTech)'
p936
aS'HS'
p937
aS'29128'
p938
aS'32608'
p939
aa(lp940
S'Visvesvaraya NIT Nagpur'
p941
aS'Civil Eng.(4 yrs; BTech)'
p942
aS'HS'
p943
aS'15040'
p944
aS'23905'
p945
aa(lp946
S'NIT Sikkim'
p947
aS'Civil Eng.(4 yrs; BTech)'
p948
aS'OS'
p949
aS'35578'
p950
aS'37952'
p951
aa(lp952
S'Motilal Nehru NIT Allahabad'
p953
aS'Chemical Eng.(4 yrs; BTech)'
p954
aS'HS'
p955
aS'10387'
p956
aS'16421'
p957
aa(lp958
S'Sardar Vallabhbhai NIT Surat'
p959
aS'Electronics & Communication Eng.(4 yrs; BTech)'
p960
aS'OS'
p961
aS'7208'
p962
aS'11660'
p963
aa(lp964
S'NIT andhra Pradesh'
p965
aS'Civil Eng.(4 yrs; BTech)'
p966
aS'OS'
p967
aS'22958'
p968
aS'31364'
p969
aa(lp970
S'NIT Calicut'
p971
aS'Electronics & Communication Eng.(4 yrs; BTech)'
p972
aS'OS'
p973
aS'5690'
p974
aS'9612'
p975
aa(lp976
S'Maulana Azad NIT Bhopal'
p977
aS'Materials Science & Metallurgical Eng.(4 yrs; BTech)'
p978
aS'OS'
p979
aS'25155'
p980
aS'31139'
p981
aa(lp982
S'NIT Warangal'
p983
aS'Mechanical Eng.(4 yrs; BTech)'
p984
aS'HS'
p985
aS'5512'
p986
aS'12401'
p987
aa(lp988
S'NIT Jamshedpur'
p989
aS'Computer Science & Eng.(4 yrs; BTech)'
p990
aS'HS'
p991
aS'6280'
p992
aS'13719'
p993
aa(lp994
S'NIT Silchar'
p995
aS'Electronics & Instrumentation Eng.(4 yrs; BTech)'
p996
aS'HS'
p997
aS'38763'
p998
aS'65809'
p999
aa(lp1000
S'NIT Arunachal Pradesh'
p1001
aS'Bio Technology (4 yrs; BTech)'
p1002
aS'OS'
p1003
aS'39190'
p1004
aS'41845'
p1005
aa(lp1006
S'NIT Warangal'
p1007
aS'Computer Science & Eng.(4 yrs; BTech)'
p1008
aS'HS'
p1009
aS'1362'
p1010
aS'4411'
p1011
aa(lp1012
S'NIT Durgapur'
p1013
aS'Electrical Eng.(4 yrs; BTech)'
p1014
aS'OS'
p1015
aS'12485'
p1016
aS'17653'
p1017
aa(lp1018
S'NIT Rourkela'
p1019
aS'Metallurgical & Materials Eng.(4 yrs; BTech)'
p1020
aS'OS'
p1021
aS'17380'
p1022
aS'23840'
p1023
aa(lp1024
S'NIT Agartala'
p1025
aS'Mechanical Eng.(4 yrs; BTech)'
p1026
aS'OS'
p1027
aS'18643'
p1028
aS'28786'
p1029
aa(lp1030
S'Dr. B R Ambedkar NIT Jalandhar'
p1031
aS'Textile Technology (4 yrs; BTech)'
p1032
aS'OS'
p1033
aS'28084'
p1034
aS'36840'
p1035
aa(lp1036
S'NIT Warangal'
p1037
aS'Civil Eng.(4 yrs; BTech)'
p1038
aS'OS'
p1039
aS'7024'
p1040
aS'13485'
p1041
aa(lp1042
S'NIT Jamshedpur'
p1043
aS'Electrical & Electronics Eng.(4 yrs; BTech)'
p1044
aS'OS'
p1045
aS'11057'
p1046
aS'17614'
p1047
aa(lp1048
S'NIT Arunachal Pradesh'
p1049
aS'Computer Science & Eng.(4 yrs; BTech)'
p1050
aS'HS'
p1051
aS'78092'
p1052
aS'121420'
p1053
aa(lp1054
S'NIT Srinagar'
p1055
aS'Metallurgical & Materials Eng.(4 yrs; BTech)'
p1056
aS'HS'
p1057
aS'83437'
p1058
aS'128535'
p1059
aa(lp1060
S'NIT Arunachal Pradesh'
p1061
aS'Electrical Eng.(4 yrs; BTech)'
p1062
aS'OS'
p1063
aS'30149'
p1064
aS'35992'
p1065
aa(lp1066
S'Motilal Nehru NIT Allahabad'
p1067
aS'Information Technology (4 yrs; BTech)'
p1068
aS'HS'
p1069
aS'4311'
p1070
aS'6567'
p1071
aa(lp1072
S'NIT andhra Pradesh'
p1073
aS'Civil Eng.(4 yrs; BTech)'
p1074
aS'HS'
p1075
aS'24262'
p1076
aS'33093'
p1077
aa(lp1078
S'Malaviya NIT Jaipur'
p1079
aS'Civil Eng.(4 yrs; BTech)'
p1080
aS'HS'
p1081
aS'8744'
p1082
aS'15294'
p1083
aa(lp1084
S'NIT Uttarakh&'
p1085
aS'Civil Eng.(4 yrs; BTech)'
p1086
aS'OS'
p1087
aS'26922'
p1088
aS'30882'
p1089
aa(lp1090
S'Motilal Nehru NIT Allahabad'
p1091
aS'Mechanical Eng.(4 yrs; BTech)'
p1092
aS'OS'
p1093
aS'7701'
p1094
aS'10894'
p1095
aa(lp1096
S'Maulana Azad NIT Bhopal'
p1097
aS'Materials Science & Metallurgical Eng.(4 yrs; BTech)'
p1098
aS'HS'
p1099
aS'20005'
p1100
aS'31788'
p1101
aa(lp1102
S'NIT Warangal'
p1103
aS'Mechanical Eng.(4 yrs; BTech)'
p1104
aS'OS'
p1105
aS'3611'
p1106
aS'7570'
p1107
aa(lp1108
S'NIT Arunachal Pradesh'
p1109
aS'Computer Science & Eng.(4 yrs; BTech)'
p1110
aS'OS'
p1111
aS'21001'
p1112
aS'26425'
p1113
aa(lp1114
S'NIT Sikkim'
p1115
aS'Civil Eng.(4 yrs; BTech)'
p1116
aS'HS'
p1117
aS'361365'
p1118
aS'1044649'
p1119
aa(lp1120
S'NIT Agartala'
p1121
aS'Civil Eng.(4 yrs; BTech)'
p1122
aS'HS'
p1123
aS'54812'
p1124
aS'280828'
p1125
aa(lp1126
S'NIT Warangal'
p1127
aS'Computer Science & Eng.(4 yrs; BTech)'
p1128
aS'OS'
p1129
aS'1356'
p1130
aS'2604'
p1131
aa(lp1132
S'Visvesvaraya NIT Nagpur'
p1133
aS'Civil Eng.(4 yrs; BTech)'
p1134
aS'OS'
p1135
aS'9141'
p1136
aS'18244'
p1137
aa(lp1138
S'NIT Sikkim'
p1139
aS'Electrical & Electronics Eng.(4 yrs; BTech)'
p1140
aS'OS'
p1141
aS'27801'
p1142
aS'36213'
p1143
aa(lp1144
S'NIT Silchar'
p1145
aS'Electronics & Instrumentation Eng.(4 yrs; BTech)'
p1146
aS'OS'
p1147
aS'23900'
p1148
aS'30116'
p1149
aa(lp1150
S'NIT Hamirpur'
p1151
aS'Materials Science & Eng.(4 yrs; BTech)'
p1152
aS'HS'
p1153
aS'90676'
p1154
aS'103856'
p1155
aa(lp1156
S'NIT Rourkela'
p1157
aS'Bio Medical Eng.(4 yrs; BTech)'
p1158
aS'HS'
p1159
aS'38241'
p1160
aS'45043'
p1161
aa(lp1162
S'NIT Arunachal Pradesh'
p1163
aS'Bio Technology (4 yrs; BTech)'
p1164
aS'HS'
p1165
aS'195680'
p1166
aS'405843'
p1167
aa(lp1168
S'NIT Warangal'
p1169
aS'Bio Technology (4 yrs; BTech)'
p1170
aS'HS'
p1171
aS'16091'
p1172
aS'31518'
p1173
aa(lp1174
S'NIT Warangal'
p1175
aS'Civil Eng.(4 yrs; BTech)'
p1176
aS'HS'
p1177
aS'10308'
p1178
aS'15130'
p1179
aa(lp1180
S'NIT Calicut'
p1181
aS'Electronics & Communication Eng.(4 yrs; BTech)'
p1182
aS'HS'
p1183
aS'6252'
p1184
aS'19827'
p1185
aa(lp1186
S'NIT andhra Pradesh'
p1187
aS'Electronics & Communication Eng.(4 yrs; BTech)'
p1188
aS'HS'
p1189
aS'11834'
p1190
aS'22313'
p1191
aa(lp1192
S'Motilal Nehru NIT Allahabad'
p1193
aS'Information Technology (4 yrs; BTech)'
p1194
aS'OS'
p1195
aS'4148'
p1196
aS'6260'
p1197
aa(lp1198
S'NIT Manipur'
p1199
aS'Mechanical Eng.(4 yrs; BTech)'
p1200
aS'HS'
p1201
aS'459935'
p1202
aS'901831'
p1203
aa(lp1204
S'NIT Jamshedpur'
p1205
aS'Electrical & Electronics Eng.(4 yrs; BTech)'
p1206
aS'HS'
p1207
aS'13837'
p1208
aS'24027'
p1209
aa(lp1210
S'Motilal Nehru NIT Allahabad'
p1211
aS'Chemical Eng.(4 yrs; BTech)'
p1212
aS'OS'
p1213
aS'11878'
p1214
aS'18010'
p1215
aa(lp1216
S'NIT Meghalaya'
p1217
aS'Computer Science & Eng.(4 yrs; BTech)'
p1218
aS'OS'
p1219
aS'13261'
p1220
aS'23157'
p1221
aa(lp1222
S'NIT Raipur'
p1223
aS'Bio Medical Eng.(4 yrs; BTech)'
p1224
aS'OS'
p1225
aS'31132'
p1226
aS'38985'
p1227
aa(lp1228
S'NIT Arunachal Pradesh'
p1229
aS'Civil Eng.(4 yrs; BTech)'
p1230
aS'HS'
p1231
aS'122215'
p1232
aS'173936'
p1233
aa(lp1234
S'NIT Raipur'
p1235
aS'Chemical Eng.(4 yrs; BTech)'
p1236
aS'HS'
p1237
aS'44446'
p1238
aS'53204'
p1239
aa(lp1240
S'NIT Srinagar'
p1241
aS'Electrical Eng.(4 yrs; BTech)'
p1242
aS'OS'
p1243
aS'32547'
p1244
aS'38732'
p1245
aa(lp1246
S'Maulana Azad NIT Bhopal'
p1247
aS'Electrical Eng.(4 yrs; BTech)'
p1248
aS'OS'
p1249
aS'8303'
p1250
aS'15526'
p1251
aa(lp1252
S'NIT andhra Pradesh'
p1253
aS'Bio Technology (4 yrs; BTech)'
p1254
aS'HS'
p1255
aS'36660'
p1256
aS'39035'
p1257
aa(lp1258
S'NIT Sikkim'
p1259
aS'Bio Technology (4 yrs; BTech)'
p1260
aS'HS'
p1261
aS'467380'
p1262
aS'467380'
p1263
aa(lp1264
S'NIT Karnataka'
p1265
aS'Electrical & Electronics Eng.(4 yrs; BTech)'
p1266
aS'OS'
p1267
aS'1676'
p1268
aS'7572'
p1269
aa(lp1270
S'NIT Calicut'
p1271
aS'Computer Science & Eng.(4 yrs; BTech)'
p1272
aS'HS'
p1273
aS'3502'
p1274
aS'15208'
p1275
aa(lp1276
S'NIT Silchar'
p1277
aS'Electronics & Communication Eng.(4 yrs; BTech)'
p1278
aS'HS'
p1279
aS'17775'
p1280
aS'47039'
p1281
aa(lp1282
S'NIT Calicut'
p1283
aS'Civil Eng.(4 yrs; BTech)'
p1284
aS'HS'
p1285
aS'15811'
p1286
aS'32218'
p1287
aa(lp1288
S'NIT Sikkim'
p1289
aS'Electrical & Electronics Eng.(4 yrs; BTech)'
p1290
aS'HS'
p1291
aS'292501'
p1292
aS'1017353'
p1293
aa(lp1294
S'NIT Patna'
p1295
aS'Electrical Eng.(4 yrs; BTech)'
p1296
aS'HS'
p1297
aS'16991'
p1298
aS'27742'
p1299
aa(lp1300
S'NIT Durgapur'
p1301
aS'Information Technology (4 yrs; BTech)'
p1302
aS'HS'
p1303
aS'15250'
p1304
aS'27133'
p1305
aa(lp1306
S'NIT Durgapur'
p1307
aS'Chemical Eng.(4 yrs; BTech)'
p1308
aS'OS'
p1309
aS'22858'
p1310
aS'26453'
p1311
aa(lp1312
S'NIT Agartala'
p1313
aS'Computer Science & Eng.(4 yrs; BTech)'
p1314
aS'OS'
p1315
aS'11679'
p1316
aS'20616'
p1317
aa(lp1318
S'NIT Patna'
p1319
aS'Mechanical Eng.(4 yrs; BTech)'
p1320
aS'HS'
p1321
aS'17500'
p1322
aS'27385'
p1323
aa(lp1324
S'NIT Warangal'
p1325
aS'Computer Science & Eng.(4 yrs; BTech)'
p1326
aS'AP'
p1327
aS'2733'
p1328
aS'3089'
p1329
aa(lp1330
S'NIT Nagaland'
p1331
aS'Electrical & Electronics Eng.(4 yrs; BTech)'
p1332
aS'OS'
p1333
aS'36270'
p1334
aS'38632'
p1335
aa(lp1336
S'NIT Manipur'
p1337
aS'Electronics & Communication Eng.(4 yrs; BTech)'
p1338
aS'OS'
p1339
aS'30829'
p1340
aS'35890'
p1341
aa(lp1342
S'NIT Calicut'
p1343
aS'Bio Technology (4 yrs; BTech)'
p1344
aS'OS'
p1345
aS'17171'
p1346
aS'28524'
p1347
aa(lp1348
S'NIT Warangal'
p1349
aS'Chemical Eng.(4 yrs; BTech)'
p1350
aS'AP'
p1351
aS'14019'
p1352
aS'14798'
p1353
aa(lp1354
S'NIT Puducherry'
p1355
aS'Electronics & Communication Eng.(4 yrs; BTech)'
p1356
aS'HS'
p1357
aS'21029'
p1358
aS'143449'
p1359
aa(lp1360
S'Motilal Nehru NIT Allahabad'
p1361
aS'Production & Industrial Eng.(4 yrs; BTech)'
p1362
aS'HS'
p1363
aS'13932'
p1364
aS'19721'
p1365
aa(lp1366
S'NIT Manipur'
p1367
aS'Mechanical Eng.(4 yrs; BTech)'
p1368
aS'OS'
p1369
aS'24612'
p1370
aS'35667'
p1371
aa(lp1372
S'NIT Srinagar'
p1373
aS'Information Technology (4 yrs; BTech)'
p1374
aS'OS'
p1375
aS'24630'
p1376
aS'36954'
p1377
aa(lp1378
S'NIT Rourkela'
p1379
aS'Electronics & Instrumentation Eng.(4 yrs; BTech)'
p1380
aS'HS'
p1381
aS'16730'
p1382
aS'21357'
p1383
aa(lp1384
S'Sardar Vallabhbhai NIT Surat'
p1385
aS'Electrical Eng.(4 yrs; BTech)'
p1386
aS'HS'
p1387
aS'4883'
p1388
aS'19578'
p1389
aa(lp1390
S'NIT Sikkim'
p1391
aS'Mechanical Eng.(4 yrs; BTech)'
p1392
aS'OS'
p1393
aS'26299'
p1394
aS'32788'
p1395
aa(lp1396
S'Motilal Nehru NIT Allahabad'
p1397
aS'Electrical Eng.(4 yrs; BTech)'
p1398
aS'OS'
p1399
aS'7109'
p1400
aS'10154'
p1401
aa(lp1402
S'Visvesvaraya NIT Nagpur'
p1403
aS'Electrical & Electronics Eng.(4 yrs; BTech)'
p1404
aS'OS'
p1405
aS'8554'
p1406
aS'12590'
p1407
aa(lp1408
S'NIT Hamirpur'
p1409
aS'Computer Science & Eng.(4 yrs; BTech)'
p1410
aS'OS'
p1411
aS'7908'
p1412
aS'11881'
p1413
aa(lp1414
S'NIT Calicut'
p1415
aS'Computer Science & Eng.(4 yrs; BTech)'
p1416
aS'OS'
p1417
aS'3094'
p1418
aS'6616'
p1419
aa(lp1420
S'NIT Rourkela'
p1421
aS'Chemical Eng.(4 yrs; BTech)'
p1422
aS'OS'
p1423
aS'14773'
p1424
aS'19874'
p1425
aa(lp1426
S'NIT Uttarakh&'
p1427
aS'Electronics & Communication Eng.(4 yrs; BTech)'
p1428
aS'OS'
p1429
aS'18983'
p1430
aS'24469'
p1431
aa(lp1432
S'NIT Jamshedpur'
p1433
aS'Civil Eng.(4 yrs; BTech)'
p1434
aS'HS'
p1435
aS'24757'
p1436
aS'32721'
p1437
aa(lp1438
S'NIT Delhi'
p1439
aS'Computer Science & Eng.(4 yrs; BTech)'
p1440
aS'HS'
p1441
aS'7356'
p1442
aS'11564'
p1443
aa(lp1444
S'Malaviya NIT Jaipur'
p1445
aS'Mechanical Eng.(4 yrs; BTech)'
p1446
aS'HS'
p1447
aS'5182'
p1448
aS'10643'
p1449
aa(lp1450
S'NIT Sikkim'
p1451
aS'Electronics & Communication Eng.(4 yrs; BTech)'
p1452
aS'HS'
p1453
aS'487442'
p1454
aS'974399'
p1455
aa(lp1456
S'NIT Raipur'
p1457
aS'Information Technology (4 yrs; BTech)'
p1458
aS'HS'
p1459
aS'22935'
p1460
aS'40516'
p1461
aa(lp1462
S'Dr. B R Ambedkar NIT Jalandhar'
p1463
aS'Instrumentation & Control Eng.(4 yrs; BTech)'
p1464
aS'HS'
p1465
aS'20816'
p1466
aS'42036'
p1467
aa(lp1468
S'NIT Delhi'
p1469
aS'Electronics & Communication Eng.(4 yrs; BTech)'
p1470
aS'HS'
p1471
aS'12495'
p1472
aS'18470'
p1473
aa(lp1474
S'NIT Agartala'
p1475
aS'Electrical Eng.(4 yrs; BTech)'
p1476
aS'HS'
p1477
aS'27677'
p1478
aS'203916'
p1479
aa(lp1480
S'NIT Silchar'
p1481
aS'Mechanical Eng.(4 yrs; BTech)'
p1482
aS'HS'
p1483
aS'17325'
p1484
aS'45145'
p1485
aa(lp1486
S'NIT Karnataka'
p1487
aS'Information Technology (4 yrs; BTech)'
p1488
aS'HS'
p1489
aS'5399'
p1490
aS'10327'
p1491
aa(lp1492
S'NIT Patna'
p1493
aS'Computer Science & Eng.(4 yrs; BTech)'
p1494
aS'OS'
p1495
aS'8671'
p1496
aS'16017'
p1497
aa(lp1498
S'NIT Patna'
p1499
aS'Mechanical Eng.(4 yrs; BTech)'
p1500
aS'OS'
p1501
aS'17558'
p1502
aS'24477'
p1503
aa(lp1504
S'NIT Goa'
p1505
aS'Electronics & Communication Eng.(4 yrs; BTech)'
p1506
aS'HS'
p1507
aS'35217'
p1508
aS'72405'
p1509
aa(lp1510
S'NIT Hamirpur'
p1511
aS'Electrical Eng.(4 yrs; BTech)'
p1512
aS'OS'
p1513
aS'12531'
p1514
aS'19756'
p1515
aa(lp1516
S'NIT Meghalaya'
p1517
aS'Civil Eng.(4 yrs; BTech)'
p1518
aS'HS'
p1519
aS'83242'
p1520
aS'121643'
p1521
aa(lp1522
S'NIT Tiruchirappalli'
p1523
aS'Chemical Eng.(4 yrs; BTech)'
p1524
aS'OS'
p1525
aS'6695'
p1526
aS'11579'
p1527
aa(lp1528
S'Sardar Vallabhbhai NIT Surat'
p1529
aS'Electrical Eng.(4 yrs; BTech)'
p1530
aS'OS'
p1531
aS'7318'
p1532
aS'13759'
p1533
aa(lp1534
S'NIT Uttarakh&'
p1535
aS'Electrical & Electronics Eng.(4 yrs; BTech)'
p1536
aS'HS'
p1537
aS'31149'
p1538
aS'51811'
p1539
aa(lp1540
S'Maulana Azad NIT Bhopal'
p1541
aS'Computer Science & Eng.(4 yrs; BTech)'
p1542
aS'OS'
p1543
aS'5374'
p1544
aS'7949'
p1545
aa(lp1546
S'NIT andhra Pradesh'
p1547
aS'Mechanical Eng.(4 yrs; BTech)'
p1548
aS'HS'
p1549
aS'19607'
p1550
aS'28082'
p1551
aa(lp1552
S'NIT Tiruchirappalli'
p1553
aS'Civil Eng.(4 yrs; BTech)'
p1554
aS'HS'
p1555
aS'12024'
p1556
aS'23156'
p1557
aa(lp1558
S'NIT Hamirpur'
p1559
aS'Civil Eng.(4 yrs; BTech)'
p1560
aS'HS'
p1561
aS'32520'
p1562
aS'73708'
p1563
aa(lp1564
S'NIT Meghalaya'
p1565
aS'Electrical & Electronics Eng.(4 yrs; BTech)'
p1566
aS'OS'
p1567
aS'27206'
p1568
aS'32807'
p1569
aa(lp1570
S'NIT Arunachal Pradesh'
p1571
aS'Chemical Eng.(4 yrs; BTech)'
p1572
aS'OS'
p1573
aS'37303'
p1574
aS'38980'
p1575
aa(lp1576
S'NIT Goa'
p1577
aS'Electrical & Electronics Eng.(4 yrs; BTech)'
p1578
aS'GO'
p1579
aS'41150'
p1580
aS'50867'
p1581
aa(lp1582
S'Dr. B R Ambedkar NIT Jalandhar'
p1583
aS'Bio Technology (4 yrs; BTech)'
p1584
aS'HS'
p1585
aS'54038'
p1586
aS'67945'
p1587
aa(lp1588
S'Malaviya NIT Jaipur'
p1589
aS'Electronics & Communication Eng.(4 yrs; BTech)'
p1590
aS'HS'
p1591
aS'5058'
p1592
aS'8167'
p1593
aa(lp1594
S'NIT Rourkela'
p1595
aS'Chemical Eng.(4 yrs; BTech)'
p1596
aS'HS'
p1597
aS'18499'
p1598
aS'25126'
p1599
aa(lp1600
S'NIT Puducherry'
p1601
aS'Computer Science & Eng.(4 yrs; BTech)'
p1602
aS'HS'
p1603
aS'24162'
p1604
aS'137807'
p1605
aa(lp1606
S'NIT Raipur'
p1607
aS'Electrical Eng.(4 yrs; BTech)'
p1608
aS'OS'
p1609
aS'16265'
p1610
aS'21461'
p1611
aa(lp1612
S'NIT Raipur'
p1613
aS'Mechanical Eng.(4 yrs; BTech)'
p1614
aS'HS'
p1615
aS'21950'
p1616
aS'37873'
p1617
aa(lp1618
S'NIT Agartala'
p1619
aS'Civil Eng.(4 yrs; BTech)'
p1620
aS'OS'
p1621
aS'26429'
p1622
aS'36212'
p1623
aa(lp1624
S'NIT Raipur'
p1625
aS'Chemical Eng.(4 yrs; BTech)'
p1626
aS'OS'
p1627
aS'19504'
p1628
aS'29396'
p1629
aa(lp1630
S'NIT Hamirpur'
p1631
aS'Materials Science & Eng.(4 yrs; BTech)'
p1632
aS'OS'
p1633
aS'25364'
p1634
aS'33267'
p1635
aa(lp1636
S'Sardar Vallabhbhai NIT Surat'
p1637
aS'Computer Eng.(4 yrs; BTech)'
p1638
aS'OS'
p1639
aS'4240'
p1640
aS'6871'
p1641
aa(lp1642
S'NIT Delhi'
p1643
aS'Electrical & Electronics Eng.(4 yrs; BTech)'
p1644
aS'HS'
p1645
aS'19158'
p1646
aS'22111'
p1647
aa(lp1648
S'NIT Hamirpur'
p1649
aS'Chemical Eng.(4 yrs; BTech)'
p1650
aS'HS'
p1651
aS'70928'
p1652
aS'99416'
p1653
aa(lp1654
S'NIT Silchar'
p1655
aS'Electrical Eng.(4 yrs; BTech)'
p1656
aS'HS'
p1657
aS'28472'
p1658
aS'63904'
p1659
aa(lp1660
S'Maulana Azad NIT Bhopal'
p1661
aS'Chemical Eng.(4 yrs; BTech)'
p1662
aS'HS'
p1663
aS'18129'
p1664
aS'24862'
p1665
aa(lp1666
S'NIT Mizoram'
p1667
aS'Computer Science & Eng.(4 yrs; BTech)'
p1668
aS'OS'
p1669
aS'25046'
p1670
aS'32279'
p1671
aa(lp1672
S'NIT Arunachal Pradesh'
p1673
aS'Civil Eng.(4 yrs; BTech)'
p1674
aS'OS'
p1675
aS'35288'
p1676
aS'37703'
p1677
aa(lp1678
S'NIT Arunachal Pradesh'
p1679
aS'Electronics & Communication Eng.(4 yrs; BTech)'
p1680
aS'HS'
p1681
aS'67678'
p1682
aS'95112'
p1683
aa(lp1684
S'Maulana Azad NIT Bhopal'
p1685
aS'Planning (4 yrs; Bachelor of Planning)'
p1686
aS'OS'
p1687
aS'2487'
p1688
aS'3388'
p1689
aa(lp1690
S'NIT andhra Pradesh'
p1691
aS'Electrical & Electronics Eng.(4 yrs; BTech)'
p1692
aS'OS'
p1693
aS'24004'
p1694
aS'28281'
p1695
aa(lp1696
S'NIT Durgapur'
p1697
aS'Electronics & Communication Eng.(4 yrs; BTech)'
p1698
aS'OS'
p1699
aS'11015'
p1700
aS'13486'
p1701
aa(lp1702
S'NIT Tiruchirappalli'
p1703
aS'Civil Eng.(4 yrs; BTech)'
p1704
aS'OS'
p1705
aS'4192'
p1706
aS'11313'
p1707
aa(lp1708
S'NIT Hamirpur'
p1709
aS'Civil Eng.(4 yrs; BTech)'
p1710
aS'OS'
p1711
aS'18756'
p1712
aS'25352'
p1713
aa(lp1714
S'NIT Meghalaya'
p1715
aS'Electrical & Electronics Eng.(4 yrs; BTech)'
p1716
aS'HS'
p1717
aS'99226'
p1718
aS'120138'
p1719
aa(lp1720
S'NIT Arunachal Pradesh'
p1721
aS'Chemical Eng.(4 yrs; BTech)'
p1722
aS'HS'
p1723
aS'181325'
p1724
aS'236109'
p1725
aa(lp1726
S'NIT Tiruchirappalli'
p1727
aS'Mechanical Eng.(4 yrs; BTech)'
p1728
aS'OS'
p1729
aS'2233'
p1730
aS'4677'
p1731
aa(lp1732
S'NIT Jamshedpur'
p1733
aS'Computer Science & Eng.(4 yrs; BTech)'
p1734
aS'OS'
p1735
aS'6330'
p1736
aS'9640'
p1737
aa(lp1738
S'NIT Meghalaya'
p1739
aS'Mechanical Eng.(4 yrs; BTech)'
p1740
aS'OS'
p1741
aS'20670'
p1742
aS'32067'
p1743
aa(lp1744
S'NIT Puducherry'
p1745
aS'Computer Science & Eng.(4 yrs; BTech)'
p1746
aS'OS'
p1747
aS'9530'
p1748
aS'16486'
p1749
aa(lp1750
S'NIT Silchar'
p1751
aS'Electrical Eng.(4 yrs; BTech)'
p1752
aS'OS'
p1753
aS'20955'
p1754
aS'27384'
p1755
aa(lp1756
S'NIT Durgapur'
p1757
aS'Electrical Eng.(4 yrs; BTech)'
p1758
aS'HS'
p1759
aS'10841'
p1760
aS'24586'
p1761
aa(lp1762
S'Sardar Vallabhbhai NIT Surat'
p1763
aS'Computer Eng.(4 yrs; BTech)'
p1764
aS'HS'
p1765
aS'2847'
p1766
aS'9455'
p1767
aa(lp1768
S'NIT Rourkela'
p1769
aS'Metallurgical & Materials Eng.(4 yrs; BTech)'
p1770
aS'HS'
p1771
aS'19089'
p1772
aS'28648'
p1773
aa(lp1774
S'NIT Warangal'
p1775
aS'Civil Eng.(4 yrs; BTech)'
p1776
aS'AP'
p1777
aS'13937'
p1778
aS'14465'
p1779
aa(lp1780
S'NIT Arunachal Pradesh'
p1781
aS'Electronics & Communication Eng.(4 yrs; BTech)'
p1782
aS'OS'
p1783
aS'30666'
p1784
aS'35253'
p1785
aa(lp1786
S'NIT Mizoram'
p1787
aS'Computer Science & Eng.(4 yrs; BTech)'
p1788
aS'HS'
p1789
aS'231177'
p1790
aS'914353'
p1791
aa(lp1792
S'NIT Agartala'
p1793
aS'Mechanical Eng.(4 yrs; BTech)'
p1794
aS'HS'
p1795
aS'27467'
p1796
aS'152566'
p1797
aa(lp1798
S'NIT Delhi'
p1799
aS'Electrical & Electronics Eng.(4 yrs; BTech)'
p1800
aS'OS'
p1801
aS'13044'
p1802
aS'14945'
p1803
aa(lp1804
S'NIT Jamshedpur'
p1805
aS'Mechanical Eng.(4 yrs; BTech)'
p1806
aS'OS'
p1807
aS'11362'
p1808
aS'17162'
p1809
aa(lp1810
S'NIT Mizoram'
p1811
aS'Electrical & Electronics Eng.(4 yrs; BTech)'
p1812
aS'HS'
p1813
aS'912787'
p1814
aS'912787'
p1815
aa(lp1816
S'Malaviya NIT Jaipur'
p1817
aS'Mechanical Eng.(4 yrs; BTech)'
p1818
aS'OS'
p1819
aS'9144'
p1820
aS'13321'
p1821
aa(lp1822
S'NIT andhra Pradesh'
p1823
aS'Electrical & Electronics Eng.(4 yrs; BTech)'
p1824
aS'HS'
p1825
aS'18384'
p1826
aS'29159'
p1827
aa(lp1828
S'NIT Srinagar'
p1829
aS'Metallurgical & Materials Eng.(4 yrs; BTech)'
p1830
aS'OS'
p1831
aS'36875'
p1832
aS'43342'
p1833
aa(lp1834
S'Visvesvaraya NIT Nagpur'
p1835
aS'Electronics & Communication Eng.(4 yrs; BTech)'
p1836
aS'HS'
p1837
aS'4060'
p1838
aS'11836'
p1839
aa(lp1840
S'NIT Jamshedpur'
p1841
aS'Civil Eng.(4 yrs; BTech)'
p1842
aS'OS'
p1843
aS'14630'
p1844
aS'25583'
p1845
aa(lp1846
S'NIT Nagaland'
p1847
aS'Computer Science & Eng.(4 yrs; BTech)'
p1848
aS'OS'
p1849
aS'28170'
p1850
aS'31431'
p1851
aa(lp1852
S'Motilal Nehru NIT Allahabad'
p1853
aS'Electronics & Communication Eng.(4 yrs; BTech)'
p1854
aS'OS'
p1855
aS'4377'
p1856
aS'8823'
p1857
aa(lp1858
S'NIT Raipur'
p1859
aS'Information Technology (4 yrs; BTech)'
p1860
aS'OS'
p1861
aS'12721'
p1862
aS'16903'
p1863
aa(lp1864
S'NIT Tiruchirappalli'
p1865
aS'Electronics & Communication Eng.(4 yrs; BTech)'
p1866
aS'HS'
p1867
aS'1997'
p1868
aS'6929'
p1869
aa(lp1870
S'NIT Agartala'
p1871
aS'Bio Eng.(4 yrs; BTech)'
p1872
aS'OS'
p1873
aS'35193'
p1874
aS'39330'
p1875
aa(lp1876
S'Maulana Azad NIT Bhopal'
p1877
aS'Chemical Eng.(4 yrs; BTech)'
p1878
aS'OS'
p1879
aS'18011'
p1880
aS'22349'
p1881
aa(lp1882
S'NIT Agartala'
p1883
aS'Electrical Eng.(4 yrs; BTech)'
p1884
aS'OS'
p1885
aS'19198'
p1886
aS'30952'
p1887
aa(lp1888
S'NIT Delhi'
p1889
aS'Electronics & Communication Eng.(4 yrs; BTech)'
p1890
aS'OS'
p1891
aS'7980'
p1892
aS'12094'
p1893
aa(lp1894
S'NIT Patna'
p1895
aS'Electronics & Communication Eng.(4 yrs; BTech)'
p1896
aS'HS'
p1897
aS'18373'
p1898
aS'24509'
p1899
aa(lp1900
S'NIT Mizoram'
p1901
aS'Mechanical Eng.(4 yrs; BTech)'
p1902
aS'OS'
p1903
aS'34902'
p1904
aS'36452'
p1905
aa(lp1906
S'NIT Tiruchirappalli'
p1907
aS'Mechanical Eng.(4 yrs; BTech)'
p1908
aS'HS'
p1909
aS'1159'
p1910
aS'11208'
p1911
aa(lp1912
S'NIT Patna'
p1913
aS'Computer Science & Eng.(4 yrs; BTech)'
p1914
aS'HS'
p1915
aS'7229'
p1916
aS'18644'
p1917
aa(lp1918
S'Maulana Azad NIT Bhopal'
p1919
aS'Civil Eng.(4 yrs; BTech)'
p1920
aS'HS'
p1921
aS'6071'
p1922
aS'22477'
p1923
aa(lp1924
S'NIT Karnataka'
p1925
aS'Information Technology (4 yrs; BTech)'
p1926
aS'OS'
p1927
aS'3033'
p1928
aS'5269'
p1929
aa(lp1930
S'NIT Meghalaya'
p1931
aS'Civil Eng.(4 yrs; BTech)'
p1932
aS'OS'
p1933
aS'33374'
p1934
aS'37126'
p1935
aa(lp1936
S'NIT Raipur'
p1937
aS'Mechanical Eng.(4 yrs; BTech)'
p1938
aS'OS'
p1939
aS'15014'
p1940
aS'21056'
p1941
aa(lp1942
S'NIT Warangal'
p1943
aS'Metallurgical & Materials Eng.(4 yrs; BTech)'
p1944
aS'HS'
p1945
aS'18913'
p1946
aS'28095'
p1947
aa(lp1948
S'NIT Meghalaya'
p1949
aS'Electronics & Communication Eng.(4 yrs; BTech)'
p1950
aS'HS'
p1951
aS'72085'
p1952
aS'89492'
p1953
aa(lp1954
S'NIT Calicut'
p1955
aS'Eng.Physics (4 yrs; BTech)'
p1956
aS'OS'
p1957
aS'7230'
p1958
aS'16138'
p1959
aa(lp1960
S'NIT andhra Pradesh'
p1961
aS'Mechanical Eng.(4 yrs; BTech)'
p1962
aS'OS'
p1963
aS'16383'
p1964
aS'26414'
p1965
aa(lp1966
S'Sardar Vallabhbhai NIT Surat'
p1967
aS'Mechanical Eng.(4 yrs; BTech)'
p1968
aS'OS'
p1969
aS'8725'
p1970
aS'14600'
p1971
aa(lp1972
S'Maulana Azad NIT Bhopal'
p1973
aS'Computer Science & Eng.(4 yrs; BTech)'
p1974
aS'HS'
p1975
aS'4123'
p1976
aS'9045'
p1977
aa(lp1978
S'NIT Tiruchirappalli'
p1979
aS'Chemical Eng.(4 yrs; BTech)'
p1980
aS'HS'
p1981
aS'5114'
p1982
aS'17930'
p1983
aa(lp1984
S'NIT Warangal'
p1985
aS'Chemical Eng.(4 yrs; BTech)'
p1986
aS'HS'
p1987
aS'10743'
p1988
aS'18842'
p1989
aa(lp1990
S'NIT Karnataka'
p1991
aS'Mining Eng.(4 yrs; BTech)'
p1992
aS'OS'
p1993
aS'11131'
p1994
aS'22552'
p1995
aa(lp1996
S'Motilal Nehru NIT Allahabad'
p1997
aS'Computer Science & Eng.(4 yrs; BTech)'
p1998
aS'HS'
p1999
aS'1245'
p2000
aS'4365'
p2001
aa(lp2002
S'NIT Rourkela'
p2003
aS'Bio Technology (4 yrs; BTech)'
p2004
aS'HS'
p2005
aS'26249'
p2006
aS'37278'
p2007
aa(lp2008
S'NIT Goa'
p2009
aS'Electronics & Communication Eng.(4 yrs; BTech)'
p2010
aS'GO'
p2011
aS'18926'
p2012
aS'39466'
p2013
aa(lp2014
S'NIT Agartala'
p2015
aS'Electronics & Instrumentation Eng.(4 yrs; BTech)'
p2016
aS'HS'
p2017
aS'187290'
p2018
aS'321018'
p2019
aa(lp2020
S'Dr. B R Ambedkar NIT Jalandhar'
p2021
aS'Industrial & Production Eng.(4 yrs; BTech)'
p2022
aS'HS'
p2023
aS'30163'
p2024
aS'60076'
p2025
aa(lp2026
S'NIT Tiruchirappalli'
p2027
aS'Electrical & Electronics Eng.(4 yrs; BTech)'
p2028
aS'OS'
p2029
aS'2059'
p2030
aS'5309'
p2031
aa(lp2032
S'NIT Goa'
p2033
aS'Computer Science & Eng.(4 yrs; BTech)'
p2034
aS'HS'
p2035
aS'11222'
p2036
aS'15560'
p2037
aa(lp2038
S'NIT Tiruchirappalli'
p2039
aS'Electronics & Communication Eng.(4 yrs; BTech)'
p2040
aS'OS'
p2041
aS'1194'
p2042
aS'3747'
p2043
aa(lp2044
S'Visvesvaraya NIT Nagpur'
p2045
aS'Electronics & Communication Eng.(4 yrs; BTech)'
p2046
aS'OS'
p2047
aS'5854'
p2048
aS'9653'
p2049
aa(lp2050
S'NIT Rourkela'
p2051
aS'Ceramic Eng.(4 yrs; BTech)'
p2052
aS'HS'
p2053
aS'31478'
p2054
aS'36733'
p2055
aa(lp2056
S'NIT Raipur'
p2057
aS'Metallurgical Eng.(4 yrs; BTech)'
p2058
aS'OS'
p2059
aS'28032'
p2060
aS'35515'
p2061
aa(lp2062
S'Dr. B R Ambedkar NIT Jalandhar'
p2063
aS'Civil Eng.(4 yrs; BTech)'
p2064
aS'HS'
p2065
aS'19957'
p2066
aS'33914'
p2067
aa(lp2068
S'Dr. B R Ambedkar NIT Jalandhar'
p2069
aS'Chemical Eng.(4 yrs; BTech)'
p2070
aS'OS'
p2071
aS'14664'
p2072
aS'27152'
p2073
aa(lp2074
S'NIT Warangal'
p2075
aS'Electronics & Communication Eng.(4 yrs; BTech)'
p2076
aS'HS'
p2077
aS'1541'
p2078
aS'6488'
p2079
aa(lp2080
S'NIT Arunachal Pradesh'
p2081
aS'Mechanical Eng.(4 yrs; BTech)'
p2082
aS'OS'
p2083
aS'31936'
p2084
aS'34127'
p2085
aa(lp2086
S'NIT Hamirpur'
p2087
aS'Mechanical Eng.(4 yrs; BTech)'
p2088
aS'HS'
p2089
aS'21086'
p2090
aS'68511'
p2091
aa(lp2092
S'NIT Manipur'
p2093
aS'Civil Eng.(4 yrs; BTech)'
p2094
aS'HS'
p2095
aS'123741'
p2096
aS'233519'
p2097
aa(lp2098
S'Dr. B R Ambedkar NIT Jalandhar'
p2099
aS'Computer Science & Eng.(4 yrs; BTech)'
p2100
aS'OS'
p2101
aS'7036'
p2102
aS'9881'
p2103
aa(lp2104
S'NIT Karnataka'
p2105
aS'Civil Eng.(4 yrs; BTech)'
p2106
aS'HS'
p2107
aS'14829'
p2108
aS'28408'
p2109
aa(lp2110
S'Maulana Azad NIT Bhopal'
p2111
aS'Mechanical Eng.(4 yrs; BTech)'
p2112
aS'HS'
p2113
aS'9700'
p2114
aS'17340'
p2115
aa(lp2116
S'Maulana Azad NIT Bhopal'
p2117
aS'Electronics & Communication Eng.(4 yrs; BTech)'
p2118
aS'OS'
p2119
aS'8479'
p2120
aS'12168'
p2121
aa(lp2122
S'NIT Kurukshetra'
p2123
aS'Information Technology (4 yrs; BTech)'
p2124
aS'OS'
p2125
aS'6506'
p2126
aS'9868'
p2127
aa(lp2128
S'NIT Agartala'
p2129
aS'Production Eng.(4 yrs; BTech)'
p2130
aS'OS'
p2131
aS'34613'
p2132
aS'39921'
p2133
aa(lp2134
S'NIT Warangal'
p2135
aS'Metallurgical & Materials Eng.(4 yrs; BTech)'
p2136
aS'OS'
p2137
aS'14792'
p2138
aS'20053'
p2139
aa(lp2140
S'NIT Kurukshetra'
p2141
aS'Mechanical Eng.(4 yrs; BTech)'
p2142
aS'OS'
p2143
aS'11917'
p2144
aS'16224'
p2145
aa(lp2146
S'NIT Rourkela'
p2147
aS'Computer Science & Eng.(4 yrs; BTech)'
p2148
aS'HS'
p2149
aS'3024'
p2150
aS'11429'
p2151
aa(lp2152
S'Dr. B R Ambedkar NIT Jalandhar'
p2153
aS'Mechanical Eng.(4 yrs; BTech)'
p2154
aS'HS'
p2155
aS'4242'
p2156
aS'25213'
p2157
aa(lp2158
S'NIT Puducherry'
p2159
aS'Electrical & Electronics Eng.(4 yrs; BTech)'
p2160
aS'OS'
p2161
aS'18497'
p2162
aS'23180'
p2163
aa(lp2164
S'NIT Agartala'
p2165
aS'Electronics & Instrumentation Eng.(4 yrs; BTech)'
p2166
aS'OS'
p2167
aS'30551'
p2168
aS'35156'
p2169
aa(lp2170
S'Motilal Nehru NIT Allahabad'
p2171
aS'Computer Science & Eng.(4 yrs; BTech)'
p2172
aS'OS'
p2173
aS'2076'
p2174
aS'4068'
p2175
aa(lp2176
S'Visvesvaraya NIT Nagpur'
p2177
aS'Metallurgical & Materials Eng.(4 yrs; BTech)'
p2178
aS'OS'
p2179
aS'19222'
p2180
aS'28958'
p2181
aa(lp2182
S'NIT Nagaland'
p2183
aS'Electronics & Instrumentation Eng.(4 yrs; BTech)'
p2184
aS'OS'
p2185
aS'36473'
p2186
aS'38881'
p2187
aa(lp2188
S'NIT Srinagar'
p2189
aS'Mechanical Eng.(4 yrs; BTech)'
p2190
aS'HS'
p2191
aS'20683'
p2192
aS'64013'
p2193
aa(lp2194
S'NIT Durgapur'
p2195
aS'Mechanical Eng.(4 yrs; BTech)'
p2196
aS'HS'
p2197
aS'11246'
p2198
aS'29862'
p2199
aa(lp2200
S'Malaviya NIT Jaipur'
p2201
aS'Metallurgical & Materials Eng.(4 yrs; BTech)'
p2202
aS'HS'
p2203
aS'18311'
p2204
aS'28810'
p2205
aa(lp2206
S'NIT Jamshedpur'
p2207
aS'Metallurgical & Materials Eng.(4 yrs; BTech)'
p2208
aS'OS'
p2209
aS'26171'
p2210
aS'32763'
p2211
aa(lp2212
S'NIT Karnataka'
p2213
aS'Chemical Eng.(4 yrs; BTech)'
p2214
aS'OS'
p2215
aS'9221'
p2216
aS'12396'
p2217
aa(lp2218
S'NIT Rourkela'
p2219
aS'Food Process Eng.(4 yrs; BTech)'
p2220
aS'HS'
p2221
aS'42276'
p2222
aS'47089'
p2223
aa(lp2224
S'NIT Rourkela'
p2225
aS'Industrial Design (4 yrs; BTech)'
p2226
aS'OS'
p2227
aS'20697'
p2228
aS'29804'
p2229
aa(lp2230
S'NIT Durgapur'
p2231
aS'Civil Eng.(4 yrs; BTech)'
p2232
aS'HS'
p2233
aS'34032'
p2234
aS'36208'
p2235
aa(lp2236
S'NIT Durgapur'
p2237
aS'Metallurgical & Materials Eng.(4 yrs; BTech)'
p2238
aS'OS'
p2239
aS'23539'
p2240
aS'32382'
p2241
aa(lp2242
S'Visvesvaraya NIT Nagpur'
p2243
aS'Mechanical Eng.(4 yrs; BTech)'
p2244
aS'OS'
p2245
aS'7952'
p2246
aS'13559'
p2247
aa(lp2248
S'NIT Jamshedpur'
p2249
aS'Production & Industrial Eng.(4 yrs; BTech)'
p2250
aS'OS'
p2251
aS'21500'
p2252
aS'30858'
p2253
aa(lp2254
S'NIT Silchar'
p2255
aS'Computer Science & Eng.(4 yrs; BTech)'
p2256
aS'HS'
p2257
aS'8180'
p2258
aS'26993'
p2259
aa(lp2260
S'NIT Warangal'
p2261
aS'Metallurgical & Materials Eng.(4 yrs; BTech)'
p2262
aS'AP'
p2263
aS'20446'
p2264
aS'21766'
p2265
aa(lp2266
S'NIT Tiruchirappalli'
p2267
aS'Instrumentation & Control Eng.(4 yrs; BTech)'
p2268
aS'OS'
p2269
aS'5654'
p2270
aS'11036'
p2271
aa(lp2272
S'NIT Karnataka'
p2273
aS'Computer Eng.(4 yrs; BTech)'
p2274
aS'OS'
p2275
aS'1506'
p2276
aS'2940'
p2277
aa(lp2278
S'NIT Warangal'
p2279
aS'Electronics & Communication Eng.(4 yrs; BTech)'
p2280
aS'OS'
p2281
aS'3004'
p2282
aS'5064'
p2283
aa(lp2284
S'NIT Manipur'
p2285
aS'Computer Science & Eng.(4 yrs; BTech)'
p2286
aS'OS'
p2287
aS'14081'
p2288
aS'31695'
p2289
aa(lp2290
S'NIT Manipur'
p2291
aS'Electrical Eng.(4 yrs; BTech)'
p2292
aS'OS'
p2293
aS'30141'
p2294
aS'36500'
p2295
aa(lp2296
S'NIT Tiruchirappalli'
p2297
aS'Metallurgical & Materials Eng.(4 yrs; BTech)'
p2298
aS'OS'
p2299
aS'8309'
p2300
aS'17505'
p2301
aa(lp2302
S'NIT Patna'
p2303
aS'Civil Eng.(4 yrs; BTech)'
p2304
aS'HS'
p2305
aS'19732'
p2306
aS'31310'
p2307
aa(lp2308
S'Visvesvaraya NIT Nagpur'
p2309
aS'Chemical Eng.(4 yrs; BTech)'
p2310
aS'HS'
p2311
aS'15705'
p2312
aS'24125'
p2313
aa(lp2314
S'NIT Durgapur'
p2315
aS'Computer Science & Eng.(4 yrs; BTech)'
p2316
aS'OS'
p2317
aS'6574'
p2318
aS'9003'
p2319
aa(lp2320
S'NIT Srinagar'
p2321
aS'Civil Eng.(4 yrs; BTech)'
p2322
aS'HS'
p2323
aS'10174'
p2324
aS'55367'
p2325
aa(lp2326
S'Visvesvaraya NIT Nagpur'
p2327
aS'Computer Science & Eng.(4 yrs; BTech)'
p2328
aS'HS'
p2329
aS'2892'
p2330
aS'7266'
p2331
aa(lp2332
S'NIT Kurukshetra'
p2333
aS'Electrical Eng.(4 yrs; BTech)'
p2334
aS'HS'
p2335
aS'10207'
p2336
aS'21351'
p2337
aa(lp2338
S'NIT Puducherry'
p2339
aS'Civil Eng.(4 yrs; BTech)'
p2340
aS'HS'
p2341
aS'103569'
p2342
aS'171737'
p2343
aa(lp2344
S'Motilal Nehru NIT Allahabad'
p2345
aS'Bio Technology (4 yrs; BTech)'
p2346
aS'OS'
p2347
aS'24971'
p2348
aS'28617'
p2349
aa(lp2350
S'NIT Raipur'
p2351
aS'Computer Science & Eng.(4 yrs; BTech)'
p2352
aS'HS'
p2353
aS'8344'
p2354
aS'21331'
p2355
aa(lp2356
S'NIT Mizoram'
p2357
aS'Electrical & Electronics Eng.(4 yrs; BTech)'
p2358
aS'OS'
p2359
aS'36803'
p2360
aS'39164'
p2361
aa(lp2362
S'NIT Goa'
p2363
aS'Electrical & Electronics Eng.(4 yrs; BTech)'
p2364
aS'OS'
p2365
aS'14477'
p2366
aS'18001'
p2367
aa(lp2368
S'NIT Calicut'
p2369
aS'Electrical & Electronics Eng.(4 yrs; BTech)'
p2370
aS'HS'
p2371
aS'9525'
p2372
aS'22455'
p2373
aa(lp2374
S'NIT Durgapur'
p2375
aS'Mechanical Eng.(4 yrs; BTech)'
p2376
aS'OS'
p2377
aS'11827'
p2378
aS'18241'
p2379
aa(lp2380
S'NIT Goa'
p2381
aS'Computer Science & Eng.(4 yrs; BTech)'
p2382
aS'GO'
p2383
aS'20030'
p2384
aS'44714'
p2385
aa(lp2386
S'Dr. B R Ambedkar NIT Jalandhar'
p2387
aS'Bio Technology (4 yrs; BTech)'
p2388
aS'OS'
p2389
aS'24088'
p2390
aS'33912'
p2391
aa(lp2392
S'NIT Durgapur'
p2393
aS'Metallurgical & Materials Eng.(4 yrs; BTech)'
p2394
aS'HS'
p2395
aS'28384'
p2396
aS'36880'
p2397
aa(lp2398
S'Visvesvaraya NIT Nagpur'
p2399
aS'Mechanical Eng.(4 yrs; BTech)'
p2400
aS'HS'
p2401
aS'5423'
p2402
aS'13356'
p2403
aa(lp2404
S'Malaviya NIT Jaipur'
p2405
aS'Electronics & Communication Eng.(4 yrs; BTech)'
p2406
aS'OS'
p2407
aS'6287'
p2408
aS'9237'
p2409
aa(lp2410
S'NIT Rourkela'
p2411
aS'Computer Science & Eng.(4 yrs; BTech)'
p2412
aS'OS'
p2413
aS'3224'
p2414
aS'6396'
p2415
aa(lp2416
S'NIT Kurukshetra'
p2417
aS'Electronics & Communication Eng.(4 yrs; BTech)'
p2418
aS'HS'
p2419
aS'10364'
p2420
aS'14576'
p2421
aa(lp2422
S'NIT Rourkela'
p2423
aS'Food Process Eng.(4 yrs; BTech)'
p2424
aS'OS'
p2425
aS'26522'
p2426
aS'33150'
p2427
aa(lp2428
S'NIT Jamshedpur'
p2429
aS'Metallurgical & Materials Eng.(4 yrs; BTech)'
p2430
aS'HS'
p2431
aS'25520'
p2432
aS'37237'
p2433
aa(lp2434
S'NIT Durgapur'
p2435
aS'Civil Eng.(4 yrs; BTech)'
p2436
aS'OS'
p2437
aS'15324'
p2438
aS'22588'
p2439
aa(lp2440
S'NIT Tiruchirappalli'
p2441
aS'Instrumentation & Control Eng.(4 yrs; BTech)'
p2442
aS'HS'
p2443
aS'10299'
p2444
aS'14188'
p2445
aa(lp2446
S'NIT Patna'
p2447
aS'Civil Eng.(4 yrs; BTech)'
p2448
aS'OS'
p2449
aS'22138'
p2450
aS'28808'
p2451
aa(lp2452
S'NIT Rourkela'
p2453
aS'Industrial Design (4 yrs; BTech)'
p2454
aS'HS'
p2455
aS'28074'
p2456
aS'34485'
p2457
aa(lp2458
S'NIT Raipur'
p2459
aS'Electrical Eng.(4 yrs; BTech)'
p2460
aS'HS'
p2461
aS'9047'
p2462
aS'34663'
p2463
aa(lp2464
S'NIT Manipur'
p2465
aS'Computer Science & Eng.(4 yrs; BTech)'
p2466
aS'HS'
p2467
aS'167727'
p2468
aS'704913'
p2469
aa(lp2470
S'NIT Kurukshetra'
p2471
aS'Electrical Eng.(4 yrs; BTech)'
p2472
aS'OS'
p2473
aS'10041'
p2474
aS'16314'
p2475
aa(lp2476
S'NIT Calicut'
p2477
aS'Electrical & Electronics Eng.(4 yrs; BTech)'
p2478
aS'OS'
p2479
aS'9550'
p2480
aS'13181'
p2481
aa(lp2482
S'Maulana Azad NIT Bhopal'
p2483
aS'Planning (4 yrs; Bachelor of Planning)'
p2484
aS'HS'
p2485
aS'4049'
p2486
aS'5952'
p2487
aa(lp2488
S'NIT Hamirpur'
p2489
aS'Chemical Eng.(4 yrs; BTech)'
p2490
aS'OS'
p2491
aS'20437'
p2492
aS'27013'
p2493
aa(lp2494
S'NIT Durgapur'
p2495
aS'Electronics & Communication Eng.(4 yrs; BTech)'
p2496
aS'HS'
p2497
aS'10701'
p2498
aS'20076'
p2499
aa(lp2500
S'NIT Goa'
p2501
aS'Electrical & Electronics Eng.(4 yrs; BTech)'
p2502
aS'HS'
p2503
aS'56097'
p2504
aS'56097'
p2505
aa(lp2506
S'Malaviya NIT Jaipur'
p2507
aS'Computer Science & Eng.(4 yrs; BTech)'
p2508
aS'HS'
p2509
aS'2099'
p2510
aS'4539'
p2511
aa(lp2512
S'NIT Durgapur'
p2513
aS'Computer Science & Eng.(4 yrs; BTech)'
p2514
aS'HS'
p2515
aS'7403'
p2516
aS'14703'
p2517
aa(lp2518
S'NIT Nagaland'
p2519
aS'Electronics & Communication Eng.(4 yrs; BTech)'
p2520
aS'OS'
p2521
aS'32601'
p2522
aS'34495'
p2523
aa(lp2524
S'NIT Uttarakh&'
p2525
aS'Electronics & Communication Eng.(4 yrs; BTech)'
p2526
aS'HS'
p2527
aS'28962'
p2528
aS'47345'
p2529
aa(lp2530
S'NIT Delhi'
p2531
aS'Computer Science & Eng.(4 yrs; BTech)'
p2532
aS'OS'
p2533
aS'4919'
p2534
aS'7816'
p2535
aa(lp2536
S'NIT Nagaland'
p2537
aS'Civil Eng.(4 yrs; BTech)'
p2538
aS'OS'
p2539
aS'37228'
p2540
aS'39016'
p2541
aa(lp2542
S'NIT Nagaland'
p2543
aS'Mechanical Eng.(4 yrs; BTech)'
p2544
aS'OS'
p2545
aS'32973'
p2546
aS'37130'
p2547
aa(lp2548
S'NIT Sikkim'
p2549
aS'Electronics & Communication Eng.(4 yrs; BTech)'
p2550
aS'OS'
p2551
aS'23927'
p2552
aS'33488'
p2553
aa(lp2554
S'NIT Rourkela'
p2555
aS'Mining Eng.(4 yrs; BTech)'
p2556
aS'HS'
p2557
aS'21129'
p2558
aS'31317'
p2559
aa(lp2560
S'NIT Puducherry'
p2561
aS'Mechanical Eng.(4 yrs; BTech)'
p2562
aS'HS'
p2563
aS'50706'
p2564
aS'116258'
p2565
aa(lp2566
S'NIT Goa'
p2567
aS'Computer Science & Eng.(4 yrs; BTech)'
p2568
aS'OS'
p2569
aS'8035'
p2570
aS'11646'
p2571
aa(lp2572
S'Dr. B R Ambedkar NIT Jalandhar'
p2573
aS'Industrial & Production Eng.(4 yrs; BTech)'
p2574
aS'OS'
p2575
aS'23264'
p2576
aS'33481'
p2577
aa(lp2578
S'NIT Sikkim'
p2579
aS'Computer Science & Eng.(4 yrs; BTech)'
p2580
aS'HS'
p2581
aS'174004'
p2582
aS'853064'
p2583
aa(lp2584
S'Maulana Azad NIT Bhopal'
p2585
aS'Mechanical Eng.(4 yrs; BTech)'
p2586
aS'OS'
p2587
aS'11303'
p2588
aS'15790'
p2589
aa(lp2590
S'NIT Srinagar'
p2591
aS'Civil Eng.(4 yrs; BTech)'
p2592
aS'OS'
p2593
aS'34160'
p2594
aS'40853'
p2595
aa(lp2596
S'Dr. B R Ambedkar NIT Jalandhar'
p2597
aS'Instrumentation & Control Eng.(4 yrs; BTech)'
p2598
aS'OS'
p2599
aS'16387'
p2600
aS'29287'
p2601
aa(lp2602
S'Dr. B R Ambedkar NIT Jalandhar'
p2603
aS'Chemical Eng.(4 yrs; BTech)'
p2604
aS'HS'
p2605
aS'19250'
p2606
aS'50748'
p2607
aa(lp2608
S'Dr. B R Ambedkar NIT Jalandhar'
p2609
aS'Civil Eng.(4 yrs; BTech)'
p2610
aS'OS'
p2611
aS'16511'
p2612
aS'23340'
p2613
aa(lp2614
S'NIT Warangal'
p2615
aS'Electrical & Electronics Eng.(4 yrs; BTech)'
p2616
aS'HS'
p2617
aS'6579'
p2618
aS'10211'
p2619
aa(lp2620
S'NIT Hamirpur'
p2621
aS'Electrical Eng.(4 yrs; BTech)'
p2622
aS'HS'
p2623
aS'17607'
p2624
aS'75183'
p2625
aa(lp2626
S'NIT Manipur'
p2627
aS'Civil Eng.(4 yrs; BTech)'
p2628
aS'OS'
p2629
aS'33745'
p2630
aS'38068'
p2631
aa(lp2632
S'NIT Silchar'
p2633
aS'Mechanical Eng.(4 yrs; BTech)'
p2634
aS'OS'
p2635
aS'15033'
p2636
aS'25114'
p2637
aa(lp2638
S'Visvesvaraya NIT Nagpur'
p2639
aS'Metallurgical & Materials Eng.(4 yrs; BTech)'
p2640
aS'HS'
p2641
aS'21263'
p2642
aS'31000'
p2643
aa(lp2644
S'NIT Goa'
p2645
aS'Electronics & Communication Eng.(4 yrs; BTech)'
p2646
aS'OS'
p2647
aS'16171'
p2648
aS'17574'
p2649
aa(lp2650
S'NIT Agartala'
p2651
aS'Electronics & Communication Eng.(4 yrs; BTech)'
p2652
aS'HS'
p2653
aS'41645'
p2654
aS'220075'
p2655
aa(lp2656
S'Sardar Vallabhbhai NIT Surat'
p2657
aS'Civil Eng.(4 yrs; BTech)'
p2658
aS'HS'
p2659
aS'18781'
p2660
aS'30453'
p2661
aa(lp2662
S'Dr. B R Ambedkar NIT Jalandhar'
p2663
aS'Electronics & Communication Eng.(4 yrs; BTech)'
p2664
aS'HS'
p2665
aS'12537'
p2666
aS'18763'
p2667
aa(lp2668
S'NIT Puducherry'
p2669
aS'Electrical & Electronics Eng.(4 yrs; BTech)'
p2670
aS'HS'
p2671
aS'75020'
p2672
aS'203241'
p2673
aa(lp2674
S'NIT Uttarakh&'
p2675
aS'Electrical & Electronics Eng.(4 yrs; BTech)'
p2676
aS'OS'
p2677
aS'15533'
p2678
aS'26450'
p2679
aa(lp2680
S'Malaviya NIT Jaipur'
p2681
aS'Computer Science & Eng.(4 yrs; BTech)'
p2682
aS'OS'
p2683
aS'3405'
p2684
aS'5931'
p2685
aa(lp2686
S'NIT Srinagar'
p2687
aS'Mechanical Eng.(4 yrs; BTech)'
p2688
aS'OS'
p2689
aS'30292'
p2690
aS'38781'
p2691
aa(lp2692
S'NIT andhra Pradesh'
p2693
aS'Metallurgical & Materials Eng.(4 yrs; BTech)'
p2694
aS'HS'
p2695
aS'29918'
p2696
aS'37437'
p2697
aa(lp2698
S'Malaviya NIT Jaipur'
p2699
aS'Metallurgical & Materials Eng.(4 yrs; BTech)'
p2700
aS'OS'
p2701
aS'20652'
p2702
aS'29271'
p2703
aa(lp2704
S'NIT Hamirpur'
p2705
aS'Electronics & Communication Eng.(4 yrs; BTech)'
p2706
aS'HS'
p2707
aS'14423'
p2708
aS'45814'
p2709
aasS'name'
p2710
S'b7'
p2711
sb.(i__main__
build
p0
(dp1
S'cutoff'
p2
(lp3
(lp4
S'IIT Bombay'
p5
aS'Metallurgical Eng. & Materials Science with M.Tech. in Ceramics & Composites (5 yrs;[B|M]Tech(Dual))'
p6
aS'AI'
p7
aS'3079'
p8
aS'3406'
p9
aa(lp10
S'IIT Kharagpur'
p11
aS'Mechanical Eng. (4 yrs;BTech)'
p12
aS'AI'
p13
aS'843'
p14
aS'1578'
p15
aa(lp16
S'IIT (BHU) Varanasi'
p17
aS'Mechanical Eng. (5 yrs;[B|M]Tech(Dual))'
p18
aS'AI'
p19
aS'3578'
p20
aS'4468'
p21
aa(lp22
S'IIT Indore'
p23
aS'Civil Eng. (4 yrs;BTech)'
p24
aS'AI'
p25
aS'5744'
p26
aS'7258'
p27
aa(lp28
S'IIT Bhubaneswar'
p29
aS'Civil Eng. & M.Tech. in Environmental Eng. (5 yrs;[B|M]Tech(Dual))'
p30
aS'AI'
p31
aS'7826'
p32
aS'8874'
p33
aa(lp34
S'IIT Kharagpur'
p35
aS'Exploration Geophysics (5 yrs; Integrated MSc)'
p36
aS'AI'
p37
aS'4793'
p38
aS'6995'
p39
aa(lp40
S'IIT Palakkad'
p41
aS'Civil Eng. (4 yrs;BTech)'
p42
aS'AI'
p43
aS'7334'
p44
aS'9509'
p45
aa(lp46
S'IIT Madras'
p47
aS'Biological Sciences (5 yrs; Bachelor of Science & MSc(Dual))'
p48
aS'AI'
p49
aS'3438'
p50
aS'8849'
p51
aa(lp52
S'IIT Delhi'
p53
aS'Eng. Physics (4 yrs;BTech)'
p54
aS'AI'
p55
aS'1244'
p56
aS'2433'
p57
aa(lp58
S'IIT Bhubaneswar'
p59
aS'Mechanical Eng. & M. Tech. in Thermal Science & Eng. (5 yrs;[B|M]Tech(Dual))'
p60
aS'AI'
p61
aS'6125'
p62
aS'6653'
p63
aa(lp64
S'IIT Kharagpur'
p65
aS'Metallurgical & Materials Eng. (4 yrs;BTech)'
p66
aS'AI'
p67
aS'3773'
p68
aS'4501'
p69
aa(lp70
S'IIT Bhubaneswar'
p71
aS'Computer Science & Eng. (4 yrs;BTech)'
p72
aS'AI'
p73
aS'1764'
p74
aS'2695'
p75
aa(lp76
S'IIT Guwahati'
p77
aS'Chemical Science & Tech. (4 yrs;BTech)'
p78
aS'AI'
p79
aS'4922'
p80
aS'6670'
p81
aa(lp82
S'IIT Bombay'
p83
aS'Mechanical Eng. & M.Tech. in Computer Integrated Manufacturing (5 yrs;[B|M]Tech(Dual))'
p84
aS'AI'
p85
aS'260'
p86
aS'879'
p87
aa(lp88
S'IIT Kharagpur'
p89
aS'Quality Eng. Design & Manufacturing (5 yrs;[B|M]Tech(Dual))'
p90
aS'AI'
p91
aS'3990'
p92
aS'4662'
p93
aa(lp94
S'IIT (ISM) Dhanbad'
p95
aS'Electrical Eng. (4 yrs;BTech)'
p96
aS'AI'
p97
aS'4225'
p98
aS'6408'
p99
aa(lp100
S'IIT Patna'
p101
aS'Civil Eng. (4 yrs;BTech)'
p102
aS'AI'
p103
aS'6919'
p104
aS'8281'
p105
aa(lp106
S'IIT Madras'
p107
aS'Computer Science & Eng. (4 yrs;BTech)'
p108
aS'AI'
p109
aS'26'
p110
aS'177'
p111
aa(lp112
S'IIT Madras'
p113
aS'Aerospace Eng. (5 yrs;[B|M]Tech(Dual))'
p114
aS'AI'
p115
aS'869'
p116
aS'3360'
p117
aa(lp118
S'IIT Kharagpur'
p119
aS'Civil Eng. with any of the listed specialization (5 yrs;[B|M]Tech(Dual))'
p120
aS'AI'
p121
aS'4093'
p122
aS'4465'
p123
aa(lp124
S'IIT (BHU) Varanasi'
p125
aS'Mining Eng. (4 yrs;BTech)'
p126
aS'AI'
p127
aS'7163'
p128
aS'9271'
p129
aa(lp130
S'IIT (BHU) Varanasi'
p131
aS'Civil Eng. (4 yrs;BTech)'
p132
aS'AI'
p133
aS'4617'
p134
aS'6026'
p135
aa(lp136
S'IIT M&i'
p137
aS'Civil Eng. (4 yrs;BTech)'
p138
aS'AI'
p139
aS'6033'
p140
aS'7973'
p141
aa(lp142
S'IIT Guwahati'
p143
aS'Computer Science & Eng. (4 yrs;BTech)'
p144
aS'AI'
p145
aS'415'
p146
aS'670'
p147
aa(lp148
S'IIT Indore'
p149
aS'Electrical Eng. (4 yrs;BTech)'
p150
aS'AI'
p151
aS'2742'
p152
aS'3770'
p153
aa(lp154
S'IIT Roorkee'
p155
aS'Physics (5 yrs; Integrated MSc)'
p156
aS'AI'
p157
aS'6054'
p158
aS'7160'
p159
aa(lp160
S'IIT Kanpur'
p161
aS'Civil Eng. (4 yrs;BTech)'
p162
aS'AI'
p163
aS'1718'
p164
aS'3533'
p165
aa(lp166
S'IIT Kharagpur'
p167
aS'Physics (5 yrs; Integrated MSc)'
p168
aS'AI'
p169
aS'3424'
p170
aS'6460'
p171
aa(lp172
S'IIT Palakkad'
p173
aS'Computer Science & Eng. (4 yrs;BTech)'
p174
aS'AI'
p175
aS'3396'
p176
aS'4962'
p177
aa(lp178
S'IIT Kharagpur'
p179
aS'BioTech. & Biochemical Eng. (5 yrs;[B|M]Tech(Dual))'
p180
aS'AI'
p181
aS'5639'
p182
aS'6665'
p183
aa(lp184
S'IIT Guwahati'
p185
aS'Mechanical Eng. (4 yrs;BTech)'
p186
aS'AI'
p187
aS'2342'
p188
aS'2923'
p189
aa(lp190
S'IIT (ISM) Dhanbad'
p191
aS'Civil Eng. (4 yrs;BTech)'
p192
aS'AI'
p193
aS'6426'
p194
aS'8565'
p195
aa(lp196
S'IIT (BHU) Varanasi'
p197
aS'Ceramic Eng. (4 yrs;BTech)'
p198
aS'AI'
p199
aS'6807'
p200
aS'9561'
p201
aa(lp202
S'IIT Roorkee'
p203
aS'Eng. Physics (4 yrs;BTech)'
p204
aS'AI'
p205
aS'2519'
p206
aS'4037'
p207
aa(lp208
S'IIT Roorkee'
p209
aS'Geological Tech. (5 yrs; Integrated MTech)'
p210
aS'AI'
p211
aS'5704'
p212
aS'6900'
p213
aa(lp214
S'IIT Bombay'
p215
aS'Mechanical Eng. (4 yrs;BTech)'
p216
aS'AI'
p217
aS'297'
p218
aS'738'
p219
aa(lp220
S'IIT Madras'
p221
aS'Eng. Physics (4 yrs;BTech)'
p222
aS'AI'
p223
aS'773'
p224
aS'2166'
p225
aa(lp226
S'IIT Ropar'
p227
aS'Chemical Eng. (4 yrs;BTech)'
p228
aS'AI'
p229
aS'5268'
p230
aS'8075'
p231
aa(lp232
S'IIT (BHU) Varanasi'
p233
aS'Pharmaceutical Eng. & Tech. (4 yrs;BTech)'
p234
aS'AI'
p235
aS'8409'
p236
aS'10730'
p237
aa(lp238
S'IIT Bhubaneswar'
p239
aS'Mechanical Eng. (4 yrs;BTech)'
p240
aS'AI'
p241
aS'4524'
p242
aS'5522'
p243
aa(lp244
S'IIT Patna'
p245
aS'Chemical Eng. (4 yrs;BTech)'
p246
aS'AI'
p247
aS'5943'
p248
aS'8853'
p249
aa(lp250
S'IIT Delhi'
p251
aS'Production & Industrial Eng. (4 yrs;BTech)'
p252
aS'AI'
p253
aS'1694'
p254
aS'2637'
p255
aa(lp256
S'IIT (BHU) Varanasi'
p257
aS'Computer Science & Eng. (5 yrs;[B|M]Tech(Dual))'
p258
aS'AI'
p259
aS'974'
p260
aS'1116'
p261
aa(lp262
S'IIT (BHU) Varanasi'
p263
aS'Chemical Eng. (4 yrs;BTech)'
p264
aS'AI'
p265
aS'4006'
p266
aS'5900'
p267
aa(lp268
S'IIT Madras'
p269
aS'Biological Eng. (5 yrs;[B|M]Tech(Dual))'
p270
aS'AI'
p271
aS'2522'
p272
aS'6345'
p273
aa(lp274
S'IIT (BHU) Varanasi'
p275
aS'Mechanical Eng. (4 yrs;BTech)'
p276
aS'AI'
p277
aS'2467'
p278
aS'4086'
p279
aa(lp280
S'IIT Bhubaneswar'
p281
aS'Electronics & Communication Eng. (4 yrs;BTech)'
p282
aS'AI'
p283
aS'2697'
p284
aS'4089'
p285
aa(lp286
S'IIT Kharagpur'
p287
aS'Electrical Eng. with M.Tech.(5 yrs;[B|M]Tech(Dual))'
p288
aS'AI'
p289
aS'1203'
p290
aS'1520'
p291
aa(lp292
S'IIT Bombay'
p293
aS'Energy Eng. with M.Tech. in Energy Systems Eng. (5 yrs;[B|M]Tech(Dual))'
p294
aS'AI'
p295
aS'1294'
p296
aS'2514'
p297
aa(lp298
S'IIT Hyderabad'
p299
aS'Mathematics & Computing (4 yrs;BTech)'
p300
aS'AI'
p301
aS'1458'
p302
aS'1703'
p303
aa(lp304
S'IIT (ISM) Dhanbad'
p305
aS'Mining Machinery Eng. (4 yrs;BTech)'
p306
aS'AI'
p307
aS'6455'
p308
aS'9990'
p309
aa(lp310
S'IIT Bhubaneswar'
p311
aS'Computer Science & Eng. (5 yrs;[B|M]Tech(Dual))'
p312
aS'AI'
p313
aS'2626'
p314
aS'3355'
p315
aa(lp316
S'IIT (BHU) Varanasi'
p317
aS'Electrical Eng. (4 yrs;BTech)'
p318
aS'AI'
p319
aS'2243'
p320
aS'3296'
p321
aa(lp322
S'IIT Dharwad'
p323
aS'Computer Science & Eng. (4 yrs;BTech)'
p324
aS'AI'
p325
aS'3224'
p326
aS'5386'
p327
aa(lp328
S'IIT Kharagpur'
p329
aS'Electronics & Electrical Communication Eng. (4 yrs;BTech)'
p330
aS'AI'
p331
aS'586'
p332
aS'940'
p333
aa(lp334
S'IIT Madras'
p335
aS'Metallurgical & Materials Eng. (5 yrs;[B|M]Tech(Dual))'
p336
aS'AI'
p337
aS'4425'
p338
aS'4694'
p339
aa(lp340
S'IIT (BHU) Varanasi'
p341
aS'Pharmaceutical Eng. & Tech. (5 yrs;[B|M]Tech(Dual))'
p342
aS'AI'
p343
aS'9511'
p344
aS'10826'
p345
aa(lp346
S'IIT Roorkee'
p347
aS'Civil Eng. (4 yrs;BTech)'
p348
aS'AI'
p349
aS'2935'
p350
aS'4582'
p351
aa(lp352
S'IIT Kanpur'
p353
aS'Biological Sciences & BioEng. (4 yrs;BTech)'
p354
aS'AI'
p355
aS'4156'
p356
aS'5191'
p357
aa(lp358
S'IIT Hyderabad'
p359
aS'Chemical Eng. (4 yrs;BTech)'
p360
aS'AI'
p361
aS'3778'
p362
aS'5660'
p363
aa(lp364
S'IIT Bombay'
p365
aS'Civil Eng. (4 yrs;BTech)'
p366
aS'AI'
p367
aS'1046'
p368
aS'2308'
p369
aa(lp370
S'IIT Tirupati'
p371
aS'Electrical Eng. (4 yrs;BTech)'
p372
aS'AI'
p373
aS'4990'
p374
aS'7270'
p375
aa(lp376
S'IIT Patna'
p377
aS'Computer Science & Eng. (4 yrs;BTech)'
p378
aS'AI'
p379
aS'1942'
p380
aS'3298'
p381
aa(lp382
S'IIT (ISM) Dhanbad'
p383
aS'Applied Geology (5 yrs; Integrated MTech)'
p384
aS'AI'
p385
aS'8704'
p386
aS'10465'
p387
aa(lp388
S'IIT Kharagpur'
p389
aS'Agricultural & Food Eng. (4 yrs;BTech)'
p390
aS'AI'
p391
aS'5183'
p392
aS'6881'
p393
aa(lp394
S'IIT Kharagpur'
p395
aS'Metallurgical & Materials Eng. (5 yrs;[B|M]Tech(Dual))'
p396
aS'AI'
p397
aS'4516'
p398
aS'4816'
p399
aa(lp400
S'IIT Kharagpur'
p401
aS'Mining Eng. (4 yrs;BTech)'
p402
aS'AI'
p403
aS'4954'
p404
aS'6067'
p405
aa(lp406
S'IIT (ISM) Dhanbad'
p407
aS'Chemical Eng. (4 yrs;BTech)'
p408
aS'AI'
p409
aS'6710'
p410
aS'8467'
p411
aa(lp412
S'IIT Kanpur'
p413
aS'Mechanical Eng. (4 yrs;BTech)'
p414
aS'AI'
p415
aS'943'
p416
aS'1409'
p417
aa(lp418
S'IIT Jodhpur'
p419
aS'Computer Science & Eng. (4 yrs;BTech)'
p420
aS'AI'
p421
aS'2051'
p422
aS'3341'
p423
aa(lp424
S'IIT Guwahati'
p425
aS'Electronics & Electrical Eng. (4 yrs;BTech)'
p426
aS'AI'
p427
aS'1833'
p428
aS'2219'
p429
aa(lp430
S'IIT Kharagpur'
p431
aS'Civil Eng. (4 yrs;BTech)'
p432
aS'AI'
p433
aS'2329'
p434
aS'4071'
p435
aa(lp436
S'IIT Kharagpur'
p437
aS'Architecture (5 yrs; Bachelor of Architecture)'
p438
aS'AI'
p439
aS'6448'
p440
aS'14927'
p441
aa(lp442
S'IIT Madras'
p443
aS'Naval Architecture & Ocean Eng. (4 yrs;BTech)'
p444
aS'AI'
p445
aS'3799'
p446
aS'5030'
p447
aa(lp448
S'IIT (BHU) Varanasi'
p449
aS'Metallurgical Eng. (4 yrs;BTech)'
p450
aS'AI'
p451
aS'5750'
p452
aS'7298'
p453
aa(lp454
S'IIT (ISM) Dhanbad'
p455
aS'Computer Science & Eng. (4 yrs;BTech)'
p456
aS'AI'
p457
aS'1350'
p458
aS'3376'
p459
aa(lp460
S'IIT (ISM) Dhanbad'
p461
aS'Mineral Eng. (4 yrs;BTech)'
p462
aS'AI'
p463
aS'9907'
p464
aS'10491'
p465
aa(lp466
S'IIT (ISM) Dhanbad'
p467
aS'Applied Geophysics (5 yrs; Integrated MTech)'
p468
aS'AI'
p469
aS'9211'
p470
aS'10565'
p471
aa(lp472
S'IIT (ISM) Dhanbad'
p473
aS'Mining Eng. (4 yrs;BTech)'
p474
aS'AI'
p475
aS'5279'
p476
aS'9773'
p477
aa(lp478
S'IIT Kharagpur'
p479
aS'Electrical Eng. (4 yrs;BTech)'
p480
aS'AI'
p481
aS'444'
p482
aS'1174'
p483
aa(lp484
S'IIT Ropar'
p485
aS'Mechanical Eng. (5 yrs;[B|M]Tech(Dual))'
p486
aS'AI'
p487
aS'5109'
p488
aS'6356'
p489
aa(lp490
S'IIT Bhubaneswar'
p491
aS'Metallurgical & Materials Eng. (4 yrs;BTech)'
p492
aS'AI'
p493
aS'6440'
p494
aS'9149'
p495
aa(lp496
S'IIT Kanpur'
p497
aS'Chemistry (4 yrs; Bachelor of Science)'
p498
aS'AI'
p499
aS'4923'
p500
aS'6604'
p501
aa(lp502
S'IIT Madras'
p503
aS'Eng. Design (5 yrs;[B|M]Tech(Dual))'
p504
aS'AI'
p505
aS'1517'
p506
aS'4173'
p507
aa(lp508
S'IIT Kharagpur'
p509
aS'Aerospace Eng. (4 yrs;BTech)'
p510
aS'AI'
p511
aS'2732'
p512
aS'3451'
p513
aa(lp514
S'IIT Kharagpur'
p515
aS'Instrumentation Eng. (4 yrs;BTech)'
p516
aS'AI'
p517
aS'1721'
p518
aS'2547'
p519
aa(lp520
S'IIT Goa'
p521
aS'Electrical Eng. (4 yrs;BTech)'
p522
aS'AI'
p523
aS'5198'
p524
aS'7525'
p525
aa(lp526
S'IIT Palakkad'
p527
aS'Electrical Eng. (4 yrs;BTech)'
p528
aS'AI'
p529
aS'5390'
p530
aS'7207'
p531
aa(lp532
S'IIT Madras'
p533
aS'Electrical Eng. (5 yrs;[B|M]Tech(Dual))'
p534
aS'AI'
p535
aS'651'
p536
aS'1095'
p537
aa(lp538
S'IIT Kanpur'
p539
aS'Aerospace Eng. (4 yrs;BTech)'
p540
aS'AI'
p541
aS'1474'
p542
aS'3053'
p543
aa(lp544
S'IIT Kharagpur'
p545
aS'Agricultural & Food Eng. with M.Tech.(5 yrs;[B|M]Tech(Dual))'
p546
aS'AI'
p547
aS'6939'
p548
aS'8301'
p549
aa(lp550
S'IIT Madras'
p551
aS'Metallurgical & Materials Eng. (4 yrs;BTech)'
p552
aS'AI'
p553
aS'3558'
p554
aS'4546'
p555
aa(lp556
S'IIT Madras'
p557
aS'Civil Eng. (4 yrs;BTech)'
p558
aS'AI'
p559
aS'2261'
p560
aS'3632'
p561
aa(lp562
S'IIT Bhubaneswar'
p563
aS'Mechanical Eng. & M. Tech. in Mechanical System Design (5 yrs;[B|M]Tech(Dual))'
p564
aS'AI'
p565
aS'5706'
p566
aS'6094'
p567
aa(lp568
S'IIT (BHU) Varanasi'
p569
aS'Ceramic Eng. (5 yrs;[B|M]Tech(Dual))'
p570
aS'AI'
p571
aS'9344'
p572
aS'10419'
p573
aa(lp574
S'IIT Bhubaneswar'
p575
aS'Civil Eng. & M.Tech in Transportation Eng. (5 yrs;[B|M]Tech(Dual))'
p576
aS'AI'
p577
aS'7727'
p578
aS'8567'
p579
aa(lp580
S'IIT Roorkee'
p581
aS'Electronics & Communication Eng. (4 yrs;BTech)'
p582
aS'AI'
p583
aS'833'
p584
aS'1406'
p585
aa(lp586
S'IIT Roorkee'
p587
aS'Chemical Eng. (4 yrs;BTech)'
p588
aS'AI'
p589
aS'2772'
p590
aS'4078'
p591
aa(lp592
S'IIT Kharagpur'
p593
aS'Mathematics & Computing (5 yrs; Integrated MSc)'
p594
aS'AI'
p595
aS'712'
p596
aS'1321'
p597
aa(lp598
S'IIT Hyderabad'
p599
aS'Electrical Eng. (4 yrs;BTech)'
p600
aS'AI'
p601
aS'1483'
p602
aS'2357'
p603
aa(lp604
S'IIT Hyderabad'
p605
aS'Materials Science & Metallurgical Eng. (4 yrs;BTech)'
p606
aS'AI'
p607
aS'5905'
p608
aS'6495'
p609
aa(lp610
S'IIT Delhi'
p611
aS'Biochemical Eng. & BioTech. (5 yrs;[B|M]Tech(Dual))'
p612
aS'AI'
p613
aS'3058'
p614
aS'4245'
p615
aa(lp616
S'IIT (BHU) Varanasi'
p617
aS'Mining Eng. (5 yrs;[B|M]Tech(Dual))'
p618
aS'AI'
p619
aS'8491'
p620
aS'10091'
p621
aa(lp622
S'IIT Delhi'
p623
aS'Computer Science & Eng. (4 yrs;BTech)'
p624
aS'AI'
p625
aS'3'
p626
aS'104'
p627
aa(lp628
S'IIT Kharagpur'
p629
aS'BioTech. & Biochemical Eng. (4 yrs;BTech)'
p630
aS'AI'
p631
aS'4262'
p632
aS'5417'
p633
aa(lp634
S'IIT Kanpur'
p635
aS'Chemical Eng. (4 yrs;BTech)'
p636
aS'AI'
p637
aS'1828'
p638
aS'2811'
p639
aa(lp640
S'IIT Guwahati'
p641
aS'Electronics & Communication Eng. (4 yrs;BTech)'
p642
aS'AI'
p643
aS'1402'
p644
aS'1987'
p645
aa(lp646
S'IIT Kanpur'
p647
aS'Materials Science & Eng. (4 yrs;BTech)'
p648
aS'AI'
p649
aS'3059'
p650
aS'4134'
p651
aa(lp652
S'IIT (BHU) Varanasi'
p653
aS'Electronics Eng. (4 yrs;BTech)'
p654
aS'AI'
p655
aS'1454'
p656
aS'2806'
p657
aa(lp658
S'IIT Patna'
p659
aS'Mechanical Eng. (4 yrs;BTech)'
p660
aS'AI'
p661
aS'5347'
p662
aS'7237'
p663
aa(lp664
S'IIT (ISM) Dhanbad'
p665
aS'Mechanical Eng. (4 yrs;BTech)'
p666
aS'AI'
p667
aS'4958'
p668
aS'7000'
p669
aa(lp670
S'IIT Tirupati'
p671
aS'Civil Eng. (4 yrs;BTech)'
p672
aS'AI'
p673
aS'7200'
p674
aS'9374'
p675
aa(lp676
S'IIT Kharagpur'
p677
aS'Aerospace Eng. (5 yrs;[B|M]Tech(Dual))'
p678
aS'AI'
p679
aS'3506'
p680
aS'3821'
p681
aa(lp682
S'IIT Bombay'
p683
aS'Electrical Eng. (4 yrs;BTech)'
p684
aS'AI'
p685
aS'74'
p686
aS'266'
p687
aa(lp688
S'IIT Kharagpur'
p689
aS'Chemical Eng. (4 yrs;BTech)'
p690
aS'AI'
p691
aS'1620'
p692
aS'2990'
p693
aa(lp694
S'IIT Gandhinagar'
p695
aS'Computer Science & Eng. (4 yrs;BTech)'
p696
aS'AI'
p697
aS'1100'
p698
aS'1736'
p699
aa(lp700
S'IIT Hyderabad'
p701
aS'Mechanical Eng. (4 yrs;BTech)'
p702
aS'AI'
p703
aS'2429'
p704
aS'3280'
p705
aa(lp706
S'IIT (BHU) Varanasi'
p707
aS'Mathematics & Computing (5 yrs;[B|M]Tech(Dual))'
p708
aS'AI'
p709
aS'1281'
p710
aS'1657'
p711
aa(lp712
S'IIT Kanpur'
p713
aS'Computer Science & Eng. (4 yrs;BTech)'
p714
aS'AI'
p715
aS'107'
p716
aS'206'
p717
aa(lp718
S'IIT Tirupati'
p719
aS'Mechanical Eng. (4 yrs;BTech)'
p720
aS'AI'
p721
aS'6071'
p722
aS'8156'
p723
aa(lp724
S'IIT Tirupati'
p725
aS'Computer Science & Eng. (4 yrs;BTech)'
p726
aS'AI'
p727
aS'2932'
p728
aS'4384'
p729
aa(lp730
S'IIT Kanpur'
p731
aS'Physics (4 yrs; Bachelor of Science)'
p732
aS'AI'
p733
aS'303'
p734
aS'3703'
p735
aa(lp736
S'IIT Jammu'
p737
aS'Civil Eng. (4 yrs;BTech)'
p738
aS'AI'
p739
aS'9517'
p740
aS'10082'
p741
aa(lp742
S'IIT Madras'
p743
aS'Mechanical Eng. (4 yrs;BTech)'
p744
aS'AI'
p745
aS'163'
p746
aS'1222'
p747
aa(lp748
S'IIT (ISM) Dhanbad'
p749
aS'Eng. Physics (4 yrs;BTech)'
p750
aS'AI'
p751
aS'6292'
p752
aS'7637'
p753
aa(lp754
S'IIT Kharagpur'
p755
aS'Industrial & Systems Eng. (4 yrs;BTech)'
p756
aS'AI'
p757
aS'2896'
p758
aS'3485'
p759
aa(lp760
S'IIT Kharagpur'
p761
aS'Computer Science & Eng. (4 yrs;BTech)'
p762
aS'AI'
p763
aS'160'
p764
aS'262'
p765
aa(lp766
S'IIT Roorkee'
p767
aS'Geophysical Tech. (5 yrs; Integrated MTech)'
p768
aS'AI'
p769
aS'4806'
p770
aS'6233'
p771
aa(lp772
S'IIT Dharwad'
p773
aS'Mechanical Eng. (4 yrs;BTech)'
p774
aS'AI'
p775
aS'7063'
p776
aS'8856'
p777
aa(lp778
S'IIT Madras'
p779
aS'Electrical Eng. (4 yrs;BTech)'
p780
aS'AI'
p781
aS'40'
p782
aS'641'
p783
aa(lp784
S'IIT Madras'
p785
aS'Computer Science & Eng. (5 yrs;[B|M]Tech(Dual))'
p786
aS'AI'
p787
aS'200'
p788
aS'265'
p789
aa(lp790
S'IIT Bhubaneswar'
p791
aS'Civil Eng. & M. Tech. in Structural Eng. (5 yrs;[B|M]Tech(Dual))'
p792
aS'AI'
p793
aS'5624'
p794
aS'8237'
p795
aa(lp796
S'IIT Kharagpur'
p797
aS'Applied Geology (5 yrs; Integrated MSc)'
p798
aS'AI'
p799
aS'7046'
p800
aS'7966'
p801
aa(lp802
S'IIT Indore'
p803
aS'Metallurgical Eng. & Materials Science (4 yrs;BTech)'
p804
aS'AI'
p805
aS'7054'
p806
aS'8864'
p807
aa(lp808
S'IIT Kharagpur'
p809
aS'Electronics & Electrical Communication Eng. with M.Tech.(5 yrs;[B|M]Tech(Dual))'
p810
aS'AI'
p811
aS'929'
p812
aS'1335'
p813
aa(lp814
S'IIT Guwahati'
p815
aS'Eng. Physics (4 yrs;BTech)'
p816
aS'AI'
p817
aS'3337'
p818
aS'4845'
p819
aa(lp820
S'IIT Kharagpur'
p821
aS'Chemical Eng. (5 yrs;[B|M]Tech(Dual))'
p822
aS'AI'
p823
aS'3001'
p824
aS'3808'
p825
aa(lp826
S'IIT Madras'
p827
aS'Civil Eng. (5 yrs;[B|M]Tech(Dual))'
p828
aS'AI'
p829
aS'3645'
p830
aS'4435'
p831
aa(lp832
S'IIT Delhi'
p833
aS'Mathematics & Computing (5 yrs;[B|M]Tech(Dual))'
p834
aS'AI'
p835
aS'332'
p836
aS'394'
p837
aa(lp838
S'IIT Kharagpur'
p839
aS'Chemistry (5 yrs; Integrated MSc)'
p840
aS'AI'
p841
aS'4790'
p842
aS'8305'
p843
aa(lp844
S'IIT Madras'
p845
aS'Naval Architecture & Ocean Eng. (5 yrs;[B|M]Tech(Dual))'
p846
aS'AI'
p847
aS'4715'
p848
aS'5740'
p849
aa(lp850
S'IIT (BHU) Varanasi'
p851
aS'Civil Eng. (5 yrs;[B|M]Tech(Dual))'
p852
aS'AI'
p853
aS'5357'
p854
aS'6538'
p855
aa(lp856
S'IIT (BHU) Varanasi'
p857
aS'Metallurgical Eng. (5 yrs;[B|M]Tech(Dual))'
p858
aS'AI'
p859
aS'6929'
p860
aS'8833'
p861
aa(lp862
S'IIT Madras'
p863
aS'Chemical Eng. (4 yrs;BTech)'
p864
aS'AI'
p865
aS'991'
p866
aS'2802'
p867
aa(lp868
S'IIT Bombay'
p869
aS'Aerospace Eng. (4 yrs;BTech)'
p870
aS'AI'
p871
aS'749'
p872
aS'2036'
p873
aa(lp874
S'IIT Roorkee'
p875
aS'Electrical Eng. (4 yrs;BTech)'
p876
aS'AI'
p877
aS'1099'
p878
aS'1905'
p879
aa(lp880
S'IIT Kharagpur'
p881
aS'Computer Science & Eng. (5 yrs;[B|M]Tech(Dual))'
p882
aS'AI'
p883
aS'273'
p884
aS'369'
p885
aa(lp886
S'IIT Kanpur'
p887
aS'Earth Sciences (4 yrs; Bachelor of Science)'
p888
aS'AI'
p889
aS'5200'
p890
aS'6692'
p891
aa(lp892
S'IIT Bhilai'
p893
aS'Mechanical Eng. (4 yrs;BTech)'
p894
aS'AI'
p895
aS'7257'
p896
aS'8778'
p897
aa(lp898
S'IIT Kharagpur'
p899
aS'Industrial & Systems Eng. with M.Tech. in Industrial & Systems Eng. & Management (5 yrs;[B|M]Tech(Dual))'
p900
aS'AI'
p901
aS'3487'
p902
aS'4142'
p903
aa(lp904
S'IIT Delhi'
p905
aS'Civil Eng. (4 yrs;BTech)'
p906
aS'AI'
p907
aS'1341'
p908
aS'2869'
p909
aa(lp910
S'IIT Delhi'
p911
aS'Electrical Eng. (Power & Automation) (4 yrs;BTech)'
p912
aS'AI'
p913
aS'467'
p914
aS'928'
p915
aa(lp916
S'IIT Gandhinagar'
p917
aS'Electrical Eng. (4 yrs;BTech)'
p918
aS'AI'
p919
aS'1897'
p920
aS'3259'
p921
aa(lp922
S'IIT Roorkee'
p923
aS'Production & Industrial Eng. (4 yrs;BTech)'
p924
aS'AI'
p925
aS'3866'
p926
aS'4605'
p927
aa(lp928
S'IIT Kharagpur'
p929
aS'Mining Eng. (5 yrs;[B|M]Tech(Dual))'
p930
aS'AI'
p931
aS'5663'
p932
aS'6767'
p933
aa(lp934
S'IIT Bombay'
p935
aS'Electrical Eng. with M.Tech. in Communications & Signal Processing (5 yrs;[B|M]Tech(Dual))'
p936
aS'AI'
p937
aS'345'
p938
aS'510'
p939
aa(lp940
S'IIT Delhi'
p941
aS'Chemical Eng. (4 yrs;BTech)'
p942
aS'AI'
p943
aS'949'
p944
aS'1780'
p945
aa(lp946
S'IIT M&i'
p947
aS'Computer Science & Eng. (4 yrs;BTech)'
p948
aS'AI'
p949
aS'1696'
p950
aS'2587'
p951
aa(lp952
S'IIT Patna'
p953
aS'Electrical Eng. (4 yrs;BTech)'
p954
aS'AI'
p955
aS'3649'
p956
aS'6151'
p957
aa(lp958
S'IIT Kharagpur'
p959
aS'Ocean Eng. & Naval Architecture (5 yrs;[B|M]Tech(Dual))'
p960
aS'AI'
p961
aS'5292'
p962
aS'6484'
p963
aa(lp964
S'IIT M&i'
p965
aS'Electrical Eng. (4 yrs;BTech)'
p966
aS'AI'
p967
aS'3774'
p968
aS'5261'
p969
aa(lp970
S'IIT (BHU) Varanasi'
p971
aS'Industrial Chemistry (5 yrs;[B|M]Tech(Dual))'
p972
aS'AI'
p973
aS'7097'
p974
aS'9379'
p975
aa(lp976
S'IIT Delhi'
p977
aS'Electrical Eng. (4 yrs;BTech)'
p978
aS'AI'
p979
aS'226'
p980
aS'416'
p981
aa(lp982
S'IIT (ISM) Dhanbad'
p983
aS'Environmental Eng. (4 yrs;BTech)'
p984
aS'AI'
p985
aS'9103'
p986
aS'10455'
p987
aa(lp988
S'IIT Kanpur'
p989
aS'Economics (4 yrs; Bachelor of Science)'
p990
aS'AI'
p991
aS'1559'
p992
aS'2892'
p993
aa(lp994
S'IIT Jodhpur'
p995
aS'Mechanical Eng. (4 yrs;BTech)'
p996
aS'AI'
p997
aS'5263'
p998
aS'7211'
p999
aa(lp1000
S'IIT Jammu'
p1001
aS'Mechanical Eng. (4 yrs;BTech)'
p1002
aS'AI'
p1003
aS'7585'
p1004
aS'9473'
p1005
aa(lp1006
S'IIT Bhubaneswar'
p1007
aS'Mechanical Eng. with M.Tech. in Manufacturing Eng. (5 yrs;[B|M]Tech(Dual))'
p1008
aS'AI'
p1009
aS'6053'
p1010
aS'6921'
p1011
aa(lp1012
S'IIT Roorkee'
p1013
aS'Bio Tech. (4 yrs;BTech)'
p1014
aS'AI'
p1015
aS'5478'
p1016
aS'6459'
p1017
aa(lp1018
S'IIT Hyderabad'
p1019
aS'Eng. Science (4 yrs;BTech)'
p1020
aS'AI'
p1021
aS'1956'
p1022
aS'3459'
p1023
aa(lp1024
S'IIT Gandhinagar'
p1025
aS'Chemical Eng. (4 yrs;BTech)'
p1026
aS'AI'
p1027
aS'4184'
p1028
aS'5507'
p1029
aa(lp1030
S'IIT Jodhpur'
p1031
aS'Electrical Eng. (4 yrs;BTech)'
p1032
aS'AI'
p1033
aS'4442'
p1034
aS'6139'
p1035
aa(lp1036
S'IIT Roorkee'
p1037
aS'Computer Science & Eng. (4 yrs;BTech)'
p1038
aS'AI'
p1039
aS'268'
p1040
aS'449'
p1041
aa(lp1042
S'IIT Roorkee'
p1043
aS'Mechanical Eng. (4 yrs;BTech)'
p1044
aS'AI'
p1045
aS'1616'
p1046
aS'2343'
p1047
aa(lp1048
S'IIT Madras'
p1049
aS'Aerospace Eng. (4 yrs;BTech)'
p1050
aS'AI'
p1051
aS'1506'
p1052
aS'2995'
p1053
aa(lp1054
S'IIT Gandhinagar'
p1055
aS'Mechanical Eng. (4 yrs;BTech)'
p1056
aS'AI'
p1057
aS'3083'
p1058
aS'4080'
p1059
aa(lp1060
S'IIT Bombay'
p1061
aS'Electrical Eng. with M.Tech. in Microelectronics (5 yrs;[B|M]Tech(Dual))'
p1062
aS'AI'
p1063
aS'270'
p1064
aS'471'
p1065
aa(lp1066
S'IIT Kanpur'
p1067
aS'Mathematics & Scientific Computing (4 yrs; Bachelor of Science)'
p1068
aS'AI'
p1069
aS'365'
p1070
aS'921'
p1071
aa(lp1072
S'IIT Jammu'
p1073
aS'Electrical Eng. (4 yrs;BTech)'
p1074
aS'AI'
p1075
aS'7137'
p1076
aS'8830'
p1077
aa(lp1078
S'IIT (BHU) Varanasi'
p1079
aS'Materials Science & Tech. (5 yrs;[B|M]Tech(Dual))'
p1080
aS'AI'
p1081
aS'6759'
p1082
aS'8802'
p1083
aa(lp1084
S'IIT Madras'
p1085
aS'Physics (5 yrs; Bachelor of Science & MSc(Dual))'
p1086
aS'AI'
p1087
aS'2177'
p1088
aS'3753'
p1089
aa(lp1090
S'IIT Kharagpur'
p1091
aS'Mining Safety Eng. (5 yrs;[B|M]Tech(Dual))'
p1092
aS'AI'
p1093
aS'6761'
p1094
aS'8095'
p1095
aa(lp1096
S'IIT Kharagpur'
p1097
aS'Manufacturing Science & Eng. (4 yrs;BTech)'
p1098
aS'AI'
p1099
aS'2870'
p1100
aS'3804'
p1101
aa(lp1102
S'IIT Guwahati'
p1103
aS'Bio Tech. (4 yrs;BTech)'
p1104
aS'AI'
p1105
aS'5966'
p1106
aS'7915'
p1107
aa(lp1108
S'IIT Roorkee'
p1109
aS'Polymer Science & Eng. (4 yrs;BTech)'
p1110
aS'AI'
p1111
aS'6088'
p1112
aS'7688'
p1113
aa(lp1114
S'IIT Ropar'
p1115
aS'Electrical Eng. (4 yrs;BTech)'
p1116
aS'AI'
p1117
aS'3211'
p1118
aS'4580'
p1119
aa(lp1120
S'IIT Bombay'
p1121
aS'Economics (4 yrs; Bachelor of Science)'
p1122
aS'AI'
p1123
aS'1426'
p1124
aS'2555'
p1125
aa(lp1126
S'IIT Bhubaneswar'
p1127
aS'Electrical Eng. & M.Tech Power Electronics & Drives (5 yrs;[B|M]Tech(Dual))'
p1128
aS'AI'
p1129
aS'4780'
p1130
aS'5821'
p1131
aa(lp1132
S'IIT Delhi'
p1133
aS'BioTech. & Biochemical Eng. (4 yrs;BTech)'
p1134
aS'AI'
p1135
aS'2858'
p1136
aS'3860'
p1137
aa(lp1138
S'IIT Bhilai'
p1139
aS'Electrical Eng. (4 yrs;BTech)'
p1140
aS'AI'
p1141
aS'4961'
p1142
aS'8242'
p1143
aa(lp1144
S'IIT (BHU) Varanasi'
p1145
aS'BioEng. with M.Tech in Biomedical Tech. (5 yrs;[B|M]Tech(Dual))'
p1146
aS'AI'
p1147
aS'8037'
p1148
aS'10303'
p1149
aa(lp1150
S'IIT Bhubaneswar'
p1151
aS'Electrical Eng. (4 yrs;BTech)'
p1152
aS'AI'
p1153
aS'3627'
p1154
aS'5029'
p1155
aa(lp1156
S'IIT Roorkee'
p1157
aS'Applied Mathematics (5 yrs; Integrated MSc)'
p1158
aS'AI'
p1159
aS'1876'
p1160
aS'2589'
p1161
aa(lp1162
S'IIT Dharwad'
p1163
aS'Electrical Eng. (4 yrs;BTech)'
p1164
aS'AI'
p1165
aS'5941'
p1166
aS'8214'
p1167
aa(lp1168
S'IIT (ISM) Dhanbad'
p1169
aS'Electronics & Instrumentation Eng. (4 yrs;BTech)'
p1170
aS'AI'
p1171
aS'5806'
p1172
aS'7070'
p1173
aa(lp1174
S'IIT Ropar'
p1175
aS'Mechanical Eng. (4 yrs;BTech)'
p1176
aS'AI'
p1177
aS'4233'
p1178
aS'5763'
p1179
aa(lp1180
S'IIT (ISM) Dhanbad'
p1181
aS'Electronics & Communication Eng. (4 yrs;BTech)'
p1182
aS'AI'
p1183
aS'3463'
p1184
aS'5742'
p1185
aa(lp1186
S'IIT (ISM) Dhanbad'
p1187
aS'Computer Science & Eng. (5 yrs;[B|M]Tech(Dual))'
p1188
aS'AI'
p1189
aS'3165'
p1190
aS'3570'
p1191
aa(lp1192
S'IIT Bhubaneswar'
p1193
aS'Civil Eng. (4 yrs;BTech)'
p1194
aS'AI'
p1195
aS'5802'
p1196
aS'7857'
p1197
aa(lp1198
S'IIT (BHU) Varanasi'
p1199
aS'Eng. Physics (5 yrs;[B|M]Tech(Dual))'
p1200
aS'AI'
p1201
aS'4742'
p1202
aS'6599'
p1203
aa(lp1204
S'IIT Bombay'
p1205
aS'Chemical Eng. (4 yrs;BTech)'
p1206
aS'AI'
p1207
aS'830'
p1208
aS'1507'
p1209
aa(lp1210
S'IIT Gandhinagar'
p1211
aS'Civil Eng. (4 yrs;BTech)'
p1212
aS'AI'
p1213
aS'5210'
p1214
aS'6256'
p1215
aa(lp1216
S'IIT Delhi'
p1217
aS'Mathematics & Computing (4 yrs;BTech)'
p1218
aS'AI'
p1219
aS'207'
p1220
aS'329'
p1221
aa(lp1222
S'IIT Hyderabad'
p1223
aS'Computer Science & Eng. (4 yrs;BTech)'
p1224
aS'AI'
p1225
aS'522'
p1226
aS'975'
p1227
aa(lp1228
S'IIT Gandhinagar'
p1229
aS'Materials Science & Eng. (4 yrs;BTech)'
p1230
aS'AI'
p1231
aS'6328'
p1232
aS'7835'
p1233
aa(lp1234
S'IIT Kharagpur'
p1235
aS'Ocean Eng. & Naval Architecture (4 yrs;BTech)'
p1236
aS'AI'
p1237
aS'4703'
p1238
aS'5759'
p1239
aa(lp1240
S'IIT Indore'
p1241
aS'Computer Science & Eng. (4 yrs;BTech)'
p1242
aS'AI'
p1243
aS'848'
p1244
aS'1500'
p1245
aa(lp1246
S'IIT Delhi'
p1247
aS'Computer Science & Eng. (5 yrs;[B|M]Tech(Dual))'
p1248
aS'AI'
p1249
aS'78'
p1250
aS'154'
p1251
aa(lp1252
S'IIT Kanpur'
p1253
aS'Electrical Eng. (4 yrs;BTech)'
p1254
aS'AI'
p1255
aS'354'
p1256
aS'816'
p1257
aa(lp1258
S'IIT Indore'
p1259
aS'Mechanical Eng. (4 yrs;BTech)'
p1260
aS'AI'
p1261
aS'3870'
p1262
aS'4771'
p1263
aa(lp1264
S'IIT (BHU) Varanasi'
p1265
aS'Electrical Eng. with M.Tech. in Power Electronics (5 yrs;[B|M]Tech(Dual))'
p1266
aS'AI'
p1267
aS'3122'
p1268
aS'3692'
p1269
aa(lp1270
S'IIT Guwahati'
p1271
aS'Civil Eng. (4 yrs;BTech)'
p1272
aS'AI'
p1273
aS'4327'
p1274
aS'5284'
p1275
aa(lp1276
S'IIT Bombay'
p1277
aS'Computer Science & Eng. (4 yrs;BTech)'
p1278
aS'AI'
p1279
aS'1'
p1280
aS'62'
p1281
aa(lp1282
S'IIT Roorkee'
p1283
aS'Chemistry (5 yrs; Integrated MSc)'
p1284
aS'AI'
p1285
aS'7228'
p1286
aS'8601'
p1287
aa(lp1288
S'IIT Madras'
p1289
aS'Mechanical Eng. (5 yrs;[B|M]Tech(Dual))'
p1290
aS'AI'
p1291
aS'1249'
p1292
aS'1839'
p1293
aa(lp1294
S'IIT Goa'
p1295
aS'Computer Science & Eng. (4 yrs;BTech)'
p1296
aS'AI'
p1297
aS'3475'
p1298
aS'4825'
p1299
aa(lp1300
S'IIT Bombay'
p1301
aS'Metallurgical Eng. & Materials Science (4 yrs;BTech)'
p1302
aS'AI'
p1303
aS'1600'
p1304
aS'3039'
p1305
aa(lp1306
S'IIT Guwahati'
p1307
aS'Chemical Eng. (4 yrs;BTech)'
p1308
aS'AI'
p1309
aS'3226'
p1310
aS'4739'
p1311
aa(lp1312
S'IIT Kharagpur'
p1313
aS'Mechanical Eng. with M.Tech.(5 yrs;[B|M]Tech(Dual))'
p1314
aS'AI'
p1315
aS'1598'
p1316
aS'2030'
p1317
aa(lp1318
S'IIT Roorkee'
p1319
aS'Architecture (5 yrs; Bachelor of Architecture)'
p1320
aS'AI'
p1321
aS'5062'
p1322
aS'14983'
p1323
aa(lp1324
S'IIT Goa'
p1325
aS'Mechanical Eng. (4 yrs;BTech)'
p1326
aS'AI'
p1327
aS'6813'
p1328
aS'8213'
p1329
aa(lp1330
S'IIT Bombay'
p1331
aS'Metallurgical Eng. & Materials Science with M.Tech. in Metallurgical Process Eng. (5 yrs;[B|M]Tech(Dual))'
p1332
aS'AI'
p1333
aS'3056'
p1334
aS'3288'
p1335
aa(lp1336
S'IIT Hyderabad'
p1337
aS'Civil Eng. (4 yrs;BTech)'
p1338
aS'AI'
p1339
aS'3447'
p1340
aS'5773'
p1341
aa(lp1342
S'IIT Roorkee'
p1343
aS'Metallurgical & Materials Eng. (4 yrs;BTech)'
p1344
aS'AI'
p1345
aS'4310'
p1346
aS'5573'
p1347
aa(lp1348
S'IIT(ISM) Dhanbad'
p1349
aS'Petroleum Eng. (4 yrs;BTech)'
p1350
aS'AI'
p1351
aS'5240'
p1352
aS'8238'
p1353
aa(lp1354
S'IIT M&i'
p1355
aS'Mechanical Eng. (4 yrs;BTech)'
p1356
aS'AI'
p1357
aS'3779'
p1358
aS'6607'
p1359
aa(lp1360
S'IIT Madras'
p1361
aS'Chemical Eng. (5 yrs;[B|M]Tech(Dual))'
p1362
aS'AI'
p1363
aS'2994'
p1364
aS'3507'
p1365
aa(lp1366
S'IIT Kharagpur'
p1367
aS'Economics (5 yrs; Integrated MSc)'
p1368
aS'AI'
p1369
aS'3114'
p1370
aS'4493'
p1371
aa(lp1372
S'IIT Delhi'
p1373
aS'Chemical Eng. (5 yrs;[B|M]Tech(Dual))'
p1374
aS'AI'
p1375
aS'1984'
p1376
aS'2876'
p1377
aa(lp1378
S'IIT Delhi'
p1379
aS'Mechanical Eng. (4 yrs;BTech)'
p1380
aS'AI'
p1381
aS'445'
p1382
aS'944'
p1383
aa(lp1384
S'IIT Ropar'
p1385
aS'Computer Science & Eng. (4 yrs;BTech)'
p1386
aS'AI'
p1387
aS'1027'
p1388
aS'2029'
p1389
aa(lp1390
S'IIT Hyderabad'
p1391
aS'Eng. Physics (4 yrs;BTech)'
p1392
aS'AI'
p1393
aS'4041'
p1394
aS'5085'
p1395
aa(lp1396
S'IIT Palakkad'
p1397
aS'Mechanical Eng. (4 yrs;BTech)'
p1398
aS'AI'
p1399
aS'5172'
p1400
aS'8349'
p1401
aa(lp1402
S'IIT Jammu'
p1403
aS'Computer Science & Eng. (4 yrs;BTech)'
p1404
aS'AI'
p1405
aS'2927'
p1406
aS'6687'
p1407
aa(lp1408
S'IIT Delhi'
p1409
aS'Textile Tech. (4 yrs;BTech)'
p1410
aS'AI'
p1411
aS'3481'
p1412
aS'5161'
p1413
aa(lp1414
S'IIT (ISM) Dhanbad'
p1415
aS'Mathematics & Computing (5 yrs; Integrated MTech)'
p1416
aS'AI'
p1417
aS'3574'
p1418
aS'4513'
p1419
aa(lp1420
S'IIT Bhubaneswar'
p1421
aS'Metallurgical & Materials Eng. & M.Tech. in Materials Science & Eng. (5 yrs;[B|M]Tech(Dual))'
p1422
aS'AI'
p1423
aS'8983'
p1424
aS'9201'
p1425
aa(lp1426
S'IIT Bombay'
p1427
aS'Chemistry (4 yrs; Bachelor of Science)'
p1428
aS'AI'
p1429
aS'3051'
p1430
aS'5116'
p1431
aa(lp1432
S'IIT Kharagpur'
p1433
aS'Manufacturing Science & Eng. with M.Tech. in Industrial & Systems Eng. & Management (5 yrs;[B|M]Tech(Dual))'
p1434
aS'AI'
p1435
aS'4034'
p1436
aS'4523'
p1437
aa(lp1438
S'IIT Guwahati'
p1439
aS'Mathematics & Computing (4 yrs;BTech)'
p1440
aS'AI'
p1441
aS'836'
p1442
aS'1207'
p1443
aa(lp1444
S'IIT Bhilai'
p1445
aS'Computer Science & Eng. (4 yrs;BTech)'
p1446
aS'AI'
p1447
aS'5018'
p1448
aS'5940'
p1449
aa(lp1450
S'IIT (BHU) Varanasi'
p1451
aS'Biochemical Eng. with M.Tech. in Biochemical Eng. & BioTech. (5 yrs;[B|M]Tech(Dual))'
p1452
aS'AI'
p1453
aS'6802'
p1454
aS'9537'
p1455
aa(lp1456
S'IIT Bombay'
p1457
aS'Eng. Physics (4 yrs;BTech)'
p1458
aS'AI'
p1459
aS'64'
p1460
aS'1223'
p1461
aa(lp1462
S'IIT (BHU) Varanasi'
p1463
aS'Computer Science & Eng. (4 yrs;BTech)'
p1464
aS'AI'
p1465
aS'479'
p1466
aS'935'
p1467
aa(lp1468
S'IIT Ropar'
p1469
aS'Civil Eng. (4 yrs;BTech)'
p1470
aS'AI'
p1471
aS'5455'
p1472
aS'8062'
p1473
aasS'name'
p1474
S'a7'
p1475
sb.(i__main__
build
p0
(dp1
S'cutoff'
p2
(lp3
(lp4
S'\xef\xbb\xbfIII-T Kota'
p5
aS'Computer Science and Eng. (4 yrs; BTech)'
p6
aS'AI'
p7
aS'12329'
p8
aS'20828'
p9
aa(lp10
S'IIITDM Kancheepuram'
p11
aS'Electronics and Communication Eng. - D&M + M.Tech Signal Processing & Communication System Design (5 yrs; B|MTech(Dual))'
p12
aS'AI'
p13
aS'20834'
p14
aS'28069'
p15
aa(lp16
S'III-T Allahabad'
p17
aS'IT and MBA (IT) (5 yrs; BTech and MBA (Dual))'
p18
aS'AI'
p19
aS'6060'
p20
aS'9030'
p21
aa(lp22
S'III-T Allahabad'
p23
aS'IT and M.Tech (IT) Spl. Software Eng. (5 yrs; B|MTech(Dual))'
p24
aS'AI'
p25
aS'5780'
p26
aS'6558'
p27
aa(lp28
S'III-T Kilohrad'
p29
aS'Electronics and Communication Eng. (4 yrs; BTech)'
p30
aS'AI'
p31
aS'19921'
p32
aS'28667'
p33
aa(lp34
S'III-T Vadodara'
p35
aS'Computer Science and Eng. (4 yrs; BTech)'
p36
aS'AI'
p37
aS'12685'
p38
aS'23662'
p39
aa(lp40
S'IIITDM Kancheepuram'
p41
aS'Computer Eng. (5 yrs; B|MTech(Dual))'
p42
aS'AI'
p43
aS'13920'
p44
aS'21027'
p45
aa(lp46
S'III-T Allahabad'
p47
aS'Electronics and Communication Eng. and MBA (IT) (5 yrs; BTech and MBA (Dual))'
p48
aS'AI'
p49
aS'10273'
p50
aS'10683'
p51
aa(lp52
S'III-T Tiruchirappalli'
p53
aS'Computer Science and Eng. (4 yrs; BTech)'
p54
aS'AI'
p55
aS'9792'
p56
aS'21144'
p57
aa(lp58
S'III-T Kalyani'
p59
aS'Computer Science and Eng. (4 yrs; BTech)'
p60
aS'AI'
p61
aS'14831'
p62
aS'29433'
p63
aa(lp64
S'III-T Pune'
p65
aS'Computer Science and Eng. (4 yrs; BTech)'
p66
aS'AI'
p67
aS'7982'
p68
aS'23670'
p69
aa(lp70
S'III-T Guwahati'
p71
aS'Electronics and Communication Eng. (4 yrs; BTech)'
p72
aS'AI'
p73
aS'22038'
p74
aS'27928'
p75
aa(lp76
S'III-T Pune'
p77
aS'Electronics and Communication Eng. (4 yrs; BTech)'
p78
aS'AI'
p79
aS'16808'
p80
aS'28620'
p81
aa(lp82
S'IIITDM Kancheepuram'
p83
aS'Electronics and Communication Eng. - D&M + M. Tech VLSI & Electronic System Design (5 yrs; B|MTech(Dual))'
p84
aS'AI'
p85
aS'19358'
p86
aS'25579'
p87
aa(lp88
S'III-T Guwahati'
p89
aS'Computer Science and Eng. (4 yrs; BTech)'
p90
aS'AI'
p91
aS'12399'
p92
aS'21564'
p93
aa(lp94
S'III-T Design & Manufacture Jabalpur'
p95
aS'Mechanical Eng. (4 yrs; BTech)'
p96
aS'AI'
p97
aS'17291'
p98
aS'25501'
p99
aa(lp100
S'III-T Allahabad'
p101
aS'IT and M.Tech (IT) Spl. (Human Computer Interaction) (5 yrs; B|MTech(Dual))'
p102
aS'AI'
p103
aS'7092'
p104
aS'8135'
p105
aa(lp106
S'III-T Manipur'
p107
aS'Computer Science and Eng. (4 yrs; BTech)'
p108
aS'AI'
p109
aS'32911'
p110
aS'36738'
p111
aa(lp112
S'IIITDM Kancheepuram'
p113
aS'Mechanical \xe2\x80\x93 Smart Manufacturing (4 yrs; BTech)'
p114
aS'AI'
p115
aS'15571'
p116
aS'27298'
p117
aa(lp118
S'IIITDM Kancheepuram'
p119
aS'Computer Eng. (4 yrs; BTech)'
p120
aS'AI'
p121
aS'6551'
p122
aS'13827'
p123
aa(lp124
S'III-T Allahabad'
p125
aS'Electronics and Communication Eng. and M.Tech. Bio-Medical Eng. (5 yrs; B|MTech(Dual))'
p126
aS'AI'
p127
aS'12180'
p128
aS'16198'
p129
aa(lp130
S'III-T Himachal Pradesh'
p131
aS'Computer Science and Eng. (4 yrs; BTech)'
p132
aS'AI'
p133
aS'14849'
p134
aS'26260'
p135
aa(lp136
S'III-T Allahabad'
p137
aS'IT and M.Tech (IT) Spl. Robotics (5 yrs; B|MTech(Dual))'
p138
aS'AI'
p139
aS'5675'
p140
aS'6499'
p141
aa(lp142
S'III-T Allahabad'
p143
aS'IT (4 yrs; BTech)'
p144
aS'AI'
p145
aS'1143'
p146
aS'5375'
p147
aa(lp148
S'III-T Ranchi'
p149
aS'Computer Science and Eng. (4 yrs; BTech)'
p150
aS'AI'
p151
aS'22051'
p152
aS'29117'
p153
aa(lp154
S'III-T Allahabad'
p155
aS'Electronics and Communication Eng. and M.Tech (ECE) Spl. (Micro Electronics) (5 yrs; B|MTech(Dual))'
p156
aS'AI'
p157
aS'10736'
p158
aS'12639'
p159
aa(lp160
S'III-T Himachal Pradesh'
p161
aS'Electronics and Communication Eng. (4 yrs; BTech)'
p162
aS'AI'
p163
aS'27588'
p164
aS'30886'
p165
aa(lp166
S'IIITDM Kurnool'
p167
aS'Electronics and Communication Eng. - D&M (4 yrs; BTech)'
p168
aS'AI'
p169
aS'26730'
p170
aS'30485'
p171
aa(lp172
S'III-T Allahabad'
p173
aS'IT and M.Tech (IT) Spl. Wireless Communication Eng. (5 yrs; B|MTech(Dual))'
p174
aS'AI'
p175
aS'6903'
p176
aS'7948'
p177
aa(lp178
S'III-T Vadodara'
p179
aS'IT (4 yrs; BTech)'
p180
aS'AI'
p181
aS'11315'
p182
aS'27270'
p183
aa(lp184
S'III-T Ranchi'
p185
aS'Electronics and Communication Eng. (4 yrs; BTech)'
p186
aS'AI'
p187
aS'26825'
p188
aS'31575'
p189
aa(lp190
S'III-T Allahabad'
p191
aS'IT and M.Tech (IT) Spl. (Intellegent System) (5 yrs; B|MTech(Dual))'
p192
aS'AI'
p193
aS'5995'
p194
aS'6829'
p195
aa(lp196
S'III-T Kilohrad'
p197
aS'IT (4 yrs; BTech)'
p198
aS'AI'
p199
aS'23090'
p200
aS'26431'
p201
aa(lp202
S'III-T Kilohrad'
p203
aS'Computer Science and Eng. (4 yrs; BTech)'
p204
aS'AI'
p205
aS'11079'
p206
aS'22651'
p207
aa(lp208
S'III-T Dharwad'
p209
aS'Computer Science and Eng. (4 yrs; BTech)'
p210
aS'AI'
p211
aS'16961'
p212
aS'27653'
p213
aa(lp214
S'III-T Design & Manufacture Jabalpur'
p215
aS'Computer Science and Eng. (4 yrs; BTech)'
p216
aS'AI'
p217
aS'9763'
p218
aS'16901'
p219
aa(lp220
S'IIITDM Kancheepuram'
p221
aS'Mechanical Eng. (D and M) and M.Tech (Advanced Manufacturing) (5 yrs; B|MTech(Dual))'
p222
aS'AI'
p223
aS'24473'
p224
aS'30344'
p225
aa(lp226
S'IIITDM Kurnool'
p227
aS'Mechanical Eng.- D&M (4 yrs; BTech)'
p228
aS'AI'
p229
aS'27497'
p230
aS'33862'
p231
aa(lp232
S'III-T Allahabad'
p233
aS'Electronics and Communication Eng. (4 yrs; BTech)'
p234
aS'AI'
p235
aS'4174'
p236
aS'10410'
p237
aa(lp238
S'III-T Tiruchirappalli'
p239
aS'Electronics and Communication Eng. (4 yrs; BTech)'
p240
aS'AI'
p241
aS'13106'
p242
aS'25229'
p243
aa(lp244
S'III-T Kalyani'
p245
aS'IT (4 yrs; BTech)'
p246
aS'AI'
p247
aS'29439'
p248
aS'32430'
p249
aa(lp250
S'III-T Nagpur'
p251
aS'Computer Science and Eng. (4 yrs; BTech)'
p252
aS'AI'
p253
aS'9735'
p254
aS'22699'
p255
aa(lp256
S'III-T Kota'
p257
aS'Electronics and Communication Eng. (4 yrs; BTech)'
p258
aS'AI'
p259
aS'20235'
p260
aS'27240'
p261
aa(lp262
S'III-T Design & Manufacture Jabalpur'
p263
aS'Electronics and Communication Eng. (4 yrs; BTech)'
p264
aS'AI'
p265
aS'17111'
p266
aS'21690'
p267
aa(lp268
S'III-T Lucknow'
p269
aS'IT (4 yrs; BTech)'
p270
aS'AI'
p271
aS'13935'
p272
aS'23216'
p273
aa(lp274
S'IIITDM Kurnool'
p275
aS'Computer Eng. (4 yrs; BTech)'
p276
aS'AI'
p277
aS'16620'
p278
aS'28560'
p279
aa(lp280
S'III-T Allahabad'
p281
aS'IT and M.Tech (IT) Spl. (Cyber Law and Information Security) (5 yrs; B|MTech(Dual))'
p282
aS'AI'
p283
aS'6573'
p284
aS'8005'
p285
aa(lp286
S'III-T Manipur'
p287
aS'Electronics and Communication Eng. (4 yrs; BTech)'
p288
aS'AI'
p289
aS'35908'
p290
aS'40661'
p291
aa(lp292
S'III-T Andra Pradesh'
p293
aS'Electronics and Communication Eng. (4 yrs; BTech)'
p294
aS'AI'
p295
aS'15794'
p296
aS'26276'
p297
aa(lp298
S'III-T Allahabad'
p299
aS'IT and M.Tech (IT) Spl. Bio-Informatics (5 yrs; B|MTech(Dual))'
p300
aS'AI'
p301
aS'8185'
p302
aS'8334'
p303
aa(lp304
S'IIITDM Kancheepuram'
p305
aS'Electronics and Communication Eng. - D&M (4 yrs; BTech)'
p306
aS'AI'
p307
aS'5531'
p308
aS'18079'
p309
aa(lp310
S'III-T Nagpur'
p311
aS'Electronics and Communication Eng. (4 yrs; BTech)'
p312
aS'AI'
p313
aS'21489'
p314
aS'28641'
p315
aa(lp316
S'IIITDM Kancheepuram'
p317
aS'Mechanical Eng. (D and M) and M.Tech (Product Design) (5 yrs; B|MTech(Dual))'
p318
aS'AI'
p319
aS'19156'
p320
aS'28855'
p321
aa(lp322
S'III-T Andra Pradesh'
p323
aS'Computer Science and Eng. (4 yrs; BTech)'
p324
aS'AI'
p325
aS'6576'
p326
aS'21653'
p327
aa(lp328
S'IIITM Gwalior'
p329
aS'B.Tech (IT) and MBA /M.Tech (IT) (5 yrs; Integrated B. Tech. and M. Tech. /MBA)'
p330
aS'AI'
p331
aS'6690'
p332
aS'17860'
p333
aa(lp334
S'III-T Dharwad'
p335
aS'Electronics and Communication Eng. (4 yrs; BTech)'
p336
aS'AI'
p337
aS'26720'
p338
aS'29996'
p339
aa(lp340
S'IIITDM Kancheepuram'
p341
aS'Mechanical Eng.- D&M (4 yrs; BTech)'
p342
aS'AI'
p343
aS'9674'
p344
aS'23189'
p345
aa(lp346
S'III-T Kottayam'
p347
aS'Computer Science and Eng. (4 yrs; BTech)'
p348
aS'AI'
p349
aS'16999'
p350
aS'29215'
p351
aasS'name'
p352
S'c6'
p353
sb.(i__main__
build
p0
(dp1
S'cutoff'
p2
(lp3
(lp4
S'NIT Delhi'
p5
aS'Electronics & Communication Eng.(4 yrs; BTech)'
p6
aS'OS'
p7
aS'3539'
p8
aS'9078'
p9
aa(lp10
S'Maulana Azad NIT Bhopal'
p11
aS'Computer Science & Eng.(4 yrs; BTech)'
p12
aS'OS'
p13
aS'3625'
p14
aS'5905'
p15
aa(lp16
S'Malaviya NIT Jaipur'
p17
aS'Architecture (5 yrs; BA)'
p18
aS'OS'
p19
aS'1326'
p20
aS'2362'
p21
aa(lp22
S'NIT Tiruchirappalli'
p23
aS'Architecture (5 yrs; BA)'
p24
aS'OS'
p25
aS'771'
p26
aS'1278'
p27
aa(lp28
S'NIT Agartala'
p29
aS'Electronics & Instrumentation Eng.(4 yrs; BTech)'
p30
aS'HS'
p31
aS'165585'
p32
aS'212447'
p33
aa(lp34
S'NIT Puducherry'
p35
aS'Computer Science & Eng.(4 yrs; BTech)'
p36
aS'HS'
p37
aS'49917'
p38
aS'135250'
p39
aa(lp40
S'NIT Agartala'
p41
aS'Electrical Eng.(4 yrs; BTech)'
p42
aS'OS'
p43
aS'19396'
p44
aS'31455'
p45
aa(lp46
S'NIT Silchar'
p47
aS'Electrical Eng.(4 yrs; BTech)'
p48
aS'HS'
p49
aS'32353'
p50
aS'56140'
p51
aa(lp52
S'NIT Goa'
p53
aS'Electronics & Communication Eng.(4 yrs; BTech)'
p54
aS'HS'
p55
aS'29742'
p56
aS'52494'
p57
aa(lp58
S'Maulana Azad NIT Bhopal'
p59
aS'Chemical Eng.(4 yrs; BTech)'
p60
aS'OS'
p61
aS'15445'
p62
aS'21248'
p63
aa(lp64
S'NIT Delhi'
p65
aS'Computer Science & Eng.(4 yrs; BTech)'
p66
aS'OS'
p67
aS'1616'
p68
aS'5426'
p69
aa(lp70
S'NIT Delhi'
p71
aS'Electrical & Electronics Eng.(4 yrs; BTech)'
p72
aS'HS'
p73
aS'17549'
p74
aS'19138'
p75
aa(lp76
S'NIT Raipur'
p77
aS'Mechanical Eng.(4 yrs; BTech)'
p78
aS'OS'
p79
aS'11821'
p80
aS'17835'
p81
aa(lp82
S'NIT Warangal'
p83
aS'Metallurgical & Materials Eng.(4 yrs; BTech)'
p84
aS'HS'
p85
aS'9231'
p86
aS'19743'
p87
aa(lp88
S'Dr. B R Ambedkar NIT Jalandhar'
p89
aS'Instrumentation & Control Eng.(4 yrs; BTech)'
p90
aS'HS'
p91
aS'21010'
p92
aS'36778'
p93
aa(lp94
S'Motilal Nehru NIT Allahabad'
p95
aS'Computer Science & Eng.(4 yrs; BTech)'
p96
aS'HS'
p97
aS'1406'
p98
aS'3626'
p99
aa(lp100
S'Maulana Azad NIT Bhopal'
p101
aS'Civil Eng.(4 yrs; BTech)'
p102
aS'HS'
p103
aS'8523'
p104
aS'19628'
p105
aa(lp106
S'Visvesvaraya NIT Nagpur'
p107
aS'Mechanical Eng.(4 yrs; BTech)'
p108
aS'HS'
p109
aS'1666'
p110
aS'8982'
p111
aa(lp112
S'NIT Karnataka'
p113
aS'Information Technology (4 yrs; BTech)'
p114
aS'OS'
p115
aS'1489'
p116
aS'3040'
p117
aa(lp118
S'NIT Meghalaya'
p119
aS'Electrical & Electronics Eng.(4 yrs; BTech)'
p120
aS'OS'
p121
aS'28616'
p122
aS'33538'
p123
aa(lp124
S'NIT Meghalaya'
p125
aS'Electronics & Communication Eng.(4 yrs; BTech)'
p126
aS'HS'
p127
aS'75193'
p128
aS'80363'
p129
aa(lp130
S'NIT Puducherry'
p131
aS'Electrical & Electronics Eng.(4 yrs; BTech)'
p132
aS'HS'
p133
aS'39798'
p134
aS'143596'
p135
aa(lp136
S'NIT Raipur'
p137
aS'Information Technology (4 yrs; BTech)'
p138
aS'OS'
p139
aS'10226'
p140
aS'16024'
p141
aa(lp142
S'NIT Silchar'
p143
aS'Mechanical Eng.(4 yrs; BTech)'
p144
aS'OS'
p145
aS'15392'
p146
aS'24976'
p147
aa(lp148
S'NIT Rourkela'
p149
aS'Chemical Eng.(4 yrs; BTech)'
p150
aS'OS'
p151
aS'18458'
p152
aS'21465'
p153
aa(lp154
S'NIT Rourkela'
p155
aS'Mechanical Eng.& M.Tech Mechatronics & Automation (5 yrs; B|MTech(Dual))'
p156
aS'OS'
p157
aS'10176'
p158
aS'15246'
p159
aa(lp160
S'NIT Patna'
p161
aS'Architecture (5 yrs; BA)'
p162
aS'OS'
p163
aS'3043'
p164
aS'3990'
p165
aa(lp166
S'NIT Rourkela'
p167
aS'Electronics & Communication Eng.& M.Tech Communication & Network (5 yrs; B|MTech(Dual))'
p168
aS'HS'
p169
aS'16884'
p170
aS'18625'
p171
aa(lp172
S'NIT Durgapur'
p173
aS'Metallurgical & Materials Eng.(4 yrs; BTech)'
p174
aS'HS'
p175
aS'32576'
p176
aS'40898'
p177
aa(lp178
S'NIT Arunachal Pradesh'
p179
aS'Civil Eng.(4 yrs; BTech)'
p180
aS'OS'
p181
aS'28749'
p182
aS'36454'
p183
aa(lp184
S'NIT Rourkela'
p185
aS'Industrial Design (4 yrs; BTech)'
p186
aS'HS'
p187
aS'15469'
p188
aS'32621'
p189
aa(lp190
S'NIT Tiruchirappalli'
p191
aS'Civil Eng.(4 yrs; BTech)'
p192
aS'OS'
p193
aS'3252'
p194
aS'8198'
p195
aa(lp196
S'NIT Agartala'
p197
aS'Electrical Eng.(4 yrs; BTech)'
p198
aS'HS'
p199
aS'28478'
p200
aS'156221'
p201
aa(lp202
S'NIT Goa'
p203
aS'Electronics & Communication Eng.(4 yrs; BTech)'
p204
aS'OS'
p205
aS'9339'
p206
aS'13000'
p207
aa(lp208
S'NIT Hamirpur'
p209
aS'Chemical Eng.(4 yrs; BTech)'
p210
aS'OS'
p211
aS'16366'
p212
aS'24674'
p213
aa(lp214
S'NIT Meghalaya'
p215
aS'Civil Eng.(4 yrs; BTech)'
p216
aS'OS'
p217
aS'28847'
p218
aS'35693'
p219
aa(lp220
S'NIT Sikkim'
p221
aS'Electronics & Communication Eng.(4 yrs; BTech)'
p222
aS'HS'
p223
aS'302942'
p224
aS'858818'
p225
aa(lp226
S'NIT Agartala'
p227
aS'Civil Eng.(4 yrs; BTech)'
p228
aS'OS'
p229
aS'24180'
p230
aS'34678'
p231
aa(lp232
S'NIT Rourkela'
p233
aS'Electrical Eng.& M.Tech Control & Automation (5 yrs; B|MTech(Dual))'
p234
aS'OS'
p235
aS'10504'
p236
aS'13062'
p237
aa(lp238
S'NIT Arunachal Pradesh'
p239
aS'Electronics & Communication Eng.(4 yrs; BTech)'
p240
aS'OS'
p241
aS'29096'
p242
aS'33106'
p243
aa(lp244
S'NIT andhra Pradesh'
p245
aS'Mechanical Eng.(4 yrs; BTech)'
p246
aS'HS'
p247
aS'14336'
p248
aS'23190'
p249
aa(lp250
S'NIT Rourkela'
p251
aS'Metallurgical & Materials Eng.(4 yrs; BTech)'
p252
aS'HS'
p253
aS'14203'
p254
aS'23809'
p255
aa(lp256
S'NIT Goa'
p257
aS'Electrical & Electronics Eng.(4 yrs; BTech)'
p258
aS'HS'
p259
aS'30254'
p260
aS'51047'
p261
aa(lp262
S'NIT Patna'
p263
aS'Electronics & Communication Eng.(4 yrs; BTech)'
p264
aS'HS'
p265
aS'12768'
p266
aS'23220'
p267
aa(lp268
S'NIT Patna'
p269
aS'Mechanical Eng.(4 yrs; BTech)'
p270
aS'OS'
p271
aS'16200'
p272
aS'22377'
p273
aa(lp274
S'Malaviya NIT Jaipur'
p275
aS'Electronics & Communication Eng.(4 yrs; BTech)'
p276
aS'HS'
p277
aS'1922'
p278
aS'7756'
p279
aa(lp280
S'NIT Hamirpur'
p281
aS'Civil Eng.(4 yrs; BTech)'
p282
aS'OS'
p283
aS'18792'
p284
aS'23148'
p285
aa(lp286
S'NIT Jamshedpur'
p287
aS'Civil Eng.(4 yrs; BTech)'
p288
aS'OS'
p289
aS'15536'
p290
aS'22775'
p291
aa(lp292
S'Dr. B R Ambedkar NIT Jalandhar'
p293
aS'Bio Technology (4 yrs; BTech)'
p294
aS'OS'
p295
aS'30528'
p296
aS'32857'
p297
aa(lp298
S'NIT Mizoram'
p299
aS'Electrical & Electronics Eng.(4 yrs; BTech)'
p300
aS'HS'
p301
aS'340699'
p302
aS'988162'
p303
aa(lp304
S'Malaviya NIT Jaipur'
p305
aS'Mechanical Eng.(4 yrs; BTech)'
p306
aS'OS'
p307
aS'3125'
p308
aS'10925'
p309
aa(lp310
S'NIT Uttarakh&'
p311
aS'Electrical & Electronics Eng.(4 yrs; BTech)'
p312
aS'HS'
p313
aS'24699'
p314
aS'53268'
p315
aa(lp316
S'NIT Warangal'
p317
aS'Mechanical Eng.(4 yrs; BTech)'
p318
aS'HS'
p319
aS'1977'
p320
aS'5566'
p321
aa(lp322
S'Dr. B R Ambedkar NIT Jalandhar'
p323
aS'Bio Technology (4 yrs; BTech)'
p324
aS'HS'
p325
aS'31191'
p326
aS'63282'
p327
aa(lp328
S'Visvesvaraya NIT Nagpur'
p329
aS'Electronics & Communication Eng.(4 yrs; BTech)'
p330
aS'HS'
p331
aS'4291'
p332
aS'8160'
p333
aa(lp334
S'Motilal Nehru NIT Allahabad'
p335
aS'Electronics & Communication Eng.(4 yrs; BTech)'
p336
aS'OS'
p337
aS'3658'
p338
aS'6017'
p339
aa(lp340
S'Sardar Vallabhbhai NIT Surat'
p341
aS'Computer Eng.(4 yrs; BTech)'
p342
aS'OS'
p343
aS'1825'
p344
aS'5268'
p345
aa(lp346
S'NIT Tiruchirappalli'
p347
aS'Electronics & Communication Eng.(4 yrs; BTech)'
p348
aS'HS'
p349
aS'1782'
p350
aS'5664'
p351
aa(lp352
S'NIT Hamirpur'
p353
aS'Chemical Eng.(4 yrs; BTech)'
p354
aS'HS'
p355
aS'21318'
p356
aS'64609'
p357
aa(lp358
S'NIT Arunachal Pradesh'
p359
aS'Chemical Eng.(4 yrs; BTech)'
p360
aS'OS'
p361
aS'32798'
p362
aS'38651'
p363
aa(lp364
S'NIT Rourkela'
p365
aS'Electrical Eng.& M.Tech Electronic Systems & Communications (5 yrs; B|MTech(Dual))'
p366
aS'OS'
p367
aS'11391'
p368
aS'13090'
p369
aa(lp370
S'NIT Hamirpur'
p371
aS'Electronics & Communication Eng.(5 yrs; B|MTech(Dual))'
p372
aS'OS'
p373
aS'15614'
p374
aS'19863'
p375
aa(lp376
S'NIT Mizoram'
p377
aS'Computer Science & Eng.(4 yrs; BTech)'
p378
aS'OS'
p379
aS'26997'
p380
aS'32776'
p381
aa(lp382
S'NIT Mizoram'
p383
aS'Electrical & Electronics Eng.(4 yrs; BTech)'
p384
aS'OS'
p385
aS'31130'
p386
aS'37688'
p387
aa(lp388
S'NIT Patna'
p389
aS'Electronics & Communication Eng.(4 yrs; BTech)'
p390
aS'OS'
p391
aS'13639'
p392
aS'20443'
p393
aa(lp394
S'NIT Rourkela'
p395
aS'Metallurgical & Materials Eng.(4 yrs; BTech)'
p396
aS'OS'
p397
aS'21696'
p398
aS'26896'
p399
aa(lp400
S'NIT Rourkela'
p401
aS'Physics (5 yrs; Integrated Master of Science)'
p402
aS'OS'
p403
aS'22105'
p404
aS'34752'
p405
aa(lp406
S'NIT andhra Pradesh'
p407
aS'Mechanical Eng.(4 yrs; BTech)'
p408
aS'OS'
p409
aS'17343'
p410
aS'24094'
p411
aa(lp412
S'NIT Tiruchirappalli'
p413
aS'Mechanical Eng.(4 yrs; BTech)'
p414
aS'OS'
p415
aS'858'
p416
aS'3155'
p417
aa(lp418
S'NIT Rourkela'
p419
aS'Electrical Eng.& M.Tech Control & Automation (5 yrs; B|MTech(Dual))'
p420
aS'HS'
p421
aS'17589'
p422
aS'20389'
p423
aa(lp424
S'NIT Warangal'
p425
aS'Chemical Eng.(4 yrs; BTech)'
p426
aS'HS'
p427
aS'5677'
p428
aS'13944'
p429
aa(lp430
S'Motilal Nehru NIT Allahabad'
p431
aS'Information Technology (4 yrs; BTech)'
p432
aS'HS'
p433
aS'3879'
p434
aS'5541'
p435
aa(lp436
S'Maulana Azad NIT Bhopal'
p437
aS'Computer Science & Eng.(4 yrs; BTech)'
p438
aS'HS'
p439
aS'3281'
p440
aS'8230'
p441
aa(lp442
S'Motilal Nehru NIT Allahabad'
p443
aS'Chemical Eng.(4 yrs; BTech)'
p444
aS'HS'
p445
aS'9972'
p446
aS'13389'
p447
aa(lp448
S'Malaviya NIT Jaipur'
p449
aS'Metallurgical & Materials Eng.(4 yrs; BTech)'
p450
aS'HS'
p451
aS'17750'
p452
aS'25352'
p453
aa(lp454
S'NIT Delhi'
p455
aS'Computer Science & Eng.(4 yrs; BTech)'
p456
aS'HS'
p457
aS'8205'
p458
aS'11375'
p459
aa(lp460
S'NIT Srinagar'
p461
aS'Electrical Eng.(4 yrs; BTech)'
p462
aS'HS'
p463
aS'39722'
p464
aS'48318'
p465
aa(lp466
S'NIT Rourkela'
p467
aS'Bio Technology (4 yrs; BTech)'
p468
aS'HS'
p469
aS'24499'
p470
aS'37524'
p471
aa(lp472
S'NIT andhra Pradesh'
p473
aS'Electrical & Electronics Eng.(4 yrs; BTech)'
p474
aS'OS'
p475
aS'14030'
p476
aS'23648'
p477
aa(lp478
S'NIT Tiruchirappalli'
p479
aS'Architecture (5 yrs; BA)'
p480
aS'HS'
p481
aS'1136'
p482
aS'3286'
p483
aa(lp484
S'NIT Agartala'
p485
aS'Electronics & Instrumentation Eng.(4 yrs; BTech)'
p486
aS'OS'
p487
aS'24190'
p488
aS'34850'
p489
aa(lp490
S'NIT Puducherry'
p491
aS'Computer Science & Eng.(4 yrs; BTech)'
p492
aS'OS'
p493
aS'8539'
p494
aS'12990'
p495
aa(lp496
S'Maulana Azad NIT Bhopal'
p497
aS'Mechanical Eng.(4 yrs; BTech)'
p498
aS'HS'
p499
aS'8385'
p500
aS'15653'
p501
aa(lp502
S'NIT Silchar'
p503
aS'Electrical Eng.(4 yrs; BTech)'
p504
aS'OS'
p505
aS'17508'
p506
aS'27056'
p507
aa(lp508
S'NIT Meghalaya'
p509
aS'Mechanical Eng.(4 yrs; BTech)'
p510
aS'OS'
p511
aS'28016'
p512
aS'32434'
p513
aa(lp514
S'NIT Warangal'
p515
aS'Metallurgical & Materials Eng.(4 yrs; BTech)'
p516
aS'OS'
p517
aS'12537'
p518
aS'19052'
p519
aa(lp520
S'NIT Durgapur'
p521
aS'Mechanical Eng.(4 yrs; BTech)'
p522
aS'HS'
p523
aS'15959'
p524
aS'26746'
p525
aa(lp526
S'NIT Meghalaya'
p527
aS'Electronics & Communication Eng.(4 yrs; BTech)'
p528
aS'OS'
p529
aS'25844'
p530
aS'31993'
p531
aa(lp532
S'NIT Agartala'
p533
aS'Mechanical Eng.(4 yrs; BTech)'
p534
aS'HS'
p535
aS'26343'
p536
aS'96499'
p537
aa(lp538
S'NIT Srinagar'
p539
aS'Metallurgical & Materials Eng.(4 yrs; BTech)'
p540
aS'OS'
p541
aS'34041'
p542
aS'41160'
p543
aa(lp544
S'NIT Jamshedpur'
p545
aS'Mechanical Eng.(4 yrs; BTech)'
p546
aS'OS'
p547
aS'10598'
p548
aS'16577'
p549
aa(lp550
S'NIT Agartala'
p551
aS'Computer Science & Eng.(4 yrs; BTech)'
p552
aS'HS'
p553
aS'25221'
p554
aS'117659'
p555
aa(lp556
S'NIT Delhi'
p557
aS'Electrical & Electronics Eng.(4 yrs; BTech)'
p558
aS'OS'
p559
aS'7760'
p560
aS'12903'
p561
aa(lp562
S'NIT Jamshedpur'
p563
aS'Computer Science & Eng.(4 yrs; BTech)'
p564
aS'OS'
p565
aS'5236'
p566
aS'9092'
p567
aa(lp568
S'NIT Tiruchirappalli'
p569
aS'Chemical Eng.(4 yrs; BTech)'
p570
aS'OS'
p571
aS'5208'
p572
aS'10000'
p573
aa(lp574
S'NIT Rourkela'
p575
aS'Physics (5 yrs; Integrated Master of Science)'
p576
aS'HS'
p577
aS'24808'
p578
aS'58889'
p579
aa(lp580
S'NIT Agartala'
p581
aS'Chemistry (5 yrs; BSc & Master of Science (Dual))'
p582
aS'HS'
p583
aS'262657'
p584
aS'282467'
p585
aa(lp586
S'Maulana Azad NIT Bhopal'
p587
aS'Civil Eng.(4 yrs; BTech)'
p588
aS'OS'
p589
aS'10537'
p590
aS'16977'
p591
aa(lp592
S'Motilal Nehru NIT Allahabad'
p593
aS'Computer Science & Eng.(4 yrs; BTech)'
p594
aS'OS'
p595
aS'807'
p596
aS'2966'
p597
aa(lp598
S'NIT Rourkela'
p599
aS'Civil Eng.& M.Tech in Water Resources (5 yrs; B|MTech(Dual))'
p600
aS'OS'
p601
aS'16619'
p602
aS'19657'
p603
aa(lp604
S'Visvesvaraya NIT Nagpur'
p605
aS'Electrical & Electronics Eng.(4 yrs; BTech)'
p606
aS'HS'
p607
aS'4823'
p608
aS'9923'
p609
aa(lp610
S'NIT Silchar'
p611
aS'Mechanical Eng.(4 yrs; BTech)'
p612
aS'HS'
p613
aS'11861'
p614
aS'35805'
p615
aa(lp616
S'NIT Meghalaya'
p617
aS'Electrical & Electronics Eng.(4 yrs; BTech)'
p618
aS'HS'
p619
aS'59179'
p620
aS'99457'
p621
aa(lp622
S'NIT Durgapur'
p623
aS'Electrical Eng.(4 yrs; BTech)'
p624
aS'HS'
p625
aS'9770'
p626
aS'22760'
p627
aa(lp628
S'NIT Patna'
p629
aS'Computer Science & Eng.(4 yrs; BTech)'
p630
aS'OS'
p631
aS'6501'
p632
aS'15063'
p633
aa(lp634
S'NIT Tiruchirappalli'
p635
aS'Metallurgical & Materials Eng.(4 yrs; BTech)'
p636
aS'OS'
p637
aS'2002'
p638
aS'17116'
p639
aa(lp640
S'NIT Puducherry'
p641
aS'Mechanical Eng.(4 yrs; BTech)'
p642
aS'HS'
p643
aS'72903'
p644
aS'138852'
p645
aa(lp646
S'Malaviya NIT Jaipur'
p647
aS'Metallurgical & Materials Eng.(4 yrs; BTech)'
p648
aS'OS'
p649
aS'16947'
p650
aS'27987'
p651
aa(lp652
S'NIT Agartala'
p653
aS'Eng.Physics (5 yrs; B|MTech(Dual))'
p654
aS'HS'
p655
aS'225490'
p656
aS'259128'
p657
aa(lp658
S'NIT Warangal'
p659
aS'Electronics & Communication Eng.(4 yrs; BTech)'
p660
aS'OS'
p661
aS'501'
p662
aS'2846'
p663
aa(lp664
S'Motilal Nehru NIT Allahabad'
p665
aS'Bio Technology (4 yrs; BTech)'
p666
aS'OS'
p667
aS'22795'
p668
aS'28453'
p669
aa(lp670
S'Sardar Vallabhbhai NIT Surat'
p671
aS'Chemical Eng.(4 yrs; BTech)'
p672
aS'HS'
p673
aS'12848'
p674
aS'23624'
p675
aa(lp676
S'NIT Srinagar'
p677
aS'Civil Eng.(4 yrs; BTech)'
p678
aS'OS'
p679
aS'24323'
p680
aS'36008'
p681
aa(lp682
S'NIT Manipur'
p683
aS'Computer Science & Eng.(4 yrs; BTech)'
p684
aS'OS'
p685
aS'22344'
p686
aS'32173'
p687
aa(lp688
S'NIT Rourkela'
p689
aS'Chemical Eng.(5 yrs; B|MTech(Dual))'
p690
aS'HS'
p691
aS'23853'
p692
aS'25842'
p693
aa(lp694
S'Maulana Azad NIT Bhopal'
p695
aS'Mechanical Eng.(4 yrs; BTech)'
p696
aS'OS'
p697
aS'7794'
p698
aS'12401'
p699
aa(lp700
S'NIT Durgapur'
p701
aS'Civil Eng.(4 yrs; BTech)'
p702
aS'HS'
p703
aS'23193'
p704
aS'34982'
p705
aa(lp706
S'NIT Kurukshetra'
p707
aS'Computer Eng.(4 yrs; BTech)'
p708
aS'HS'
p709
aS'2942'
p710
aS'7202'
p711
aa(lp712
S'NIT Agartala'
p713
aS'Electronics & Communication Eng.(4 yrs; BTech)'
p714
aS'HS'
p715
aS'50020'
p716
aS'152192'
p717
aa(lp718
S'NIT Silchar'
p719
aS'Computer Science & Eng.(4 yrs; BTech)'
p720
aS'OS'
p721
aS'8396'
p722
aS'17405'
p723
aa(lp724
S'Dr. B R Ambedkar NIT Jalandhar'
p725
aS'Electronics & Communication Eng.(4 yrs; BTech)'
p726
aS'HS'
p727
aS'13116'
p728
aS'18604'
p729
aa(lp730
S'NIT Kurukshetra'
p731
aS'Electrical Eng.(4 yrs; BTech)'
p732
aS'HS'
p733
aS'10909'
p734
aS'19442'
p735
aa(lp736
S'NIT Warangal'
p737
aS'Metallurgical & Materials Eng.(4 yrs; BTech)'
p738
aS'AP'
p739
aS'19121'
p740
aS'19508'
p741
aa(lp742
S'NIT Durgapur'
p743
aS'Computer Science & Eng.(4 yrs; BTech)'
p744
aS'OS'
p745
aS'5322'
p746
aS'8358'
p747
aa(lp748
S'NIT Durgapur'
p749
aS'Mechanical Eng.(4 yrs; BTech)'
p750
aS'OS'
p751
aS'10961'
p752
aS'15722'
p753
aa(lp754
S'NIT Patna'
p755
aS'Civil Eng.(4 yrs; BTech)'
p756
aS'OS'
p757
aS'16993'
p758
aS'26279'
p759
aa(lp760
S'NIT Sikkim'
p761
aS'Computer Science & Eng.(4 yrs; BTech)'
p762
aS'HS'
p763
aS'52120'
p764
aS'465885'
p765
aa(lp766
S'NIT Calicut'
p767
aS'Electrical & Electronics Eng.(4 yrs; BTech)'
p768
aS'HS'
p769
aS'3665'
p770
aS'14103'
p771
aa(lp772
S'Visvesvaraya NIT Nagpur'
p773
aS'Electronics & Communication Eng.(4 yrs; BTech)'
p774
aS'OS'
p775
aS'1853'
p776
aS'5610'
p777
aa(lp778
S'Visvesvaraya NIT Nagpur'
p779
aS'Computer Science & Eng.(4 yrs; BTech)'
p780
aS'HS'
p781
aS'784'
p782
aS'4442'
p783
aa(lp784
S'NIT Manipur'
p785
aS'Civil Eng.(4 yrs; BTech)'
p786
aS'OS'
p787
aS'30740'
p788
aS'36740'
p789
aa(lp790
S'NIT Hamirpur'
p791
aS'Electrical Eng.(4 yrs; BTech)'
p792
aS'HS'
p793
aS'29277'
p794
aS'51730'
p795
aa(lp796
S'NIT Nagaland'
p797
aS'Civil Eng.(4 yrs; BTech)'
p798
aS'OS'
p799
aS'26807'
p800
aS'38120'
p801
aa(lp802
S'NIT Rourkela'
p803
aS'Food Process Eng.(4 yrs; BTech)'
p804
aS'OS'
p805
aS'26813'
p806
aS'34518'
p807
aa(lp808
S'Motilal Nehru NIT Allahabad'
p809
aS'Civil Eng.(4 yrs; BTech)'
p810
aS'HS'
p811
aS'7892'
p812
aS'13283'
p813
aa(lp814
S'NIT Rourkela'
p815
aS'Chemistry (5 yrs; Integrated Master of Science)'
p816
aS'HS'
p817
aS'38410'
p818
aS'57282'
p819
aa(lp820
S'NIT Jamshedpur'
p821
aS'Metallurgical & Materials Eng.(4 yrs; BTech)'
p822
aS'OS'
p823
aS'23187'
p824
aS'31411'
p825
aa(lp826
S'Sardar Vallabhbhai NIT Surat'
p827
aS'Civil Eng.(4 yrs; BTech)'
p828
aS'HS'
p829
aS'5563'
p830
aS'25804'
p831
aa(lp832
S'NIT Rourkela'
p833
aS'Computer Science & Eng.(4 yrs; BTech)'
p834
aS'OS'
p835
aS'2968'
p836
aS'4894'
p837
aa(lp838
S'NIT Raipur'
p839
aS'Metallurgical Eng.(4 yrs; BTech)'
p840
aS'OS'
p841
aS'25867'
p842
aS'32804'
p843
aa(lp844
S'NIT Goa'
p845
aS'Computer Science & Eng.(4 yrs; BTech)'
p846
aS'HS'
p847
aS'9829'
p848
aS'29944'
p849
aa(lp850
S'NIT Srinagar'
p851
aS'Mechanical Eng.(4 yrs; BTech)'
p852
aS'HS'
p853
aS'18850'
p854
aS'48784'
p855
aa(lp856
S'Sardar Vallabhbhai NIT Surat'
p857
aS'Mathematics (5 yrs; Integrated Master of Science)'
p858
aS'HS'
p859
aS'28219'
p860
aS'52917'
p861
aa(lp862
S'NIT Nagaland'
p863
aS'Electronics & Communication Eng.(4 yrs; BTech)'
p864
aS'OS'
p865
aS'33858'
p866
aS'36316'
p867
aa(lp868
S'NIT Hamirpur'
p869
aS'Mechanical Eng.(4 yrs; BTech)'
p870
aS'OS'
p871
aS'13838'
p872
aS'17890'
p873
aa(lp874
S'Dr. B R Ambedkar NIT Jalandhar'
p875
aS'Civil Eng.(4 yrs; BTech)'
p876
aS'HS'
p877
aS'18810'
p878
aS'34056'
p879
aa(lp880
S'NIT Kurukshetra'
p881
aS'Electronics & Communication Eng.(4 yrs; BTech)'
p882
aS'HS'
p883
aS'8235'
p884
aS'15725'
p885
aa(lp886
S'NIT Rourkela'
p887
aS'Mathematics (5 yrs; Integrated Master of Science)'
p888
aS'HS'
p889
aS'27581'
p890
aS'59450'
p891
aa(lp892
S'NIT Rourkela'
p893
aS'Ceramic Eng.(4 yrs; BTech)'
p894
aS'HS'
p895
aS'26377'
p896
aS'34958'
p897
aa(lp898
S'NIT Tiruchirappalli'
p899
aS'Electronics & Communication Eng.(4 yrs; BTech)'
p900
aS'OS'
p901
aS'860'
p902
aS'1671'
p903
aa(lp904
S'NIT Nagaland'
p905
aS'Electronics & Instrumentation Eng.(4 yrs; BTech)'
p906
aS'OS'
p907
aS'37149'
p908
aS'38790'
p909
aa(lp910
S'NIT Tiruchirappalli'
p911
aS'Instrumentation & Control Eng.(4 yrs; BTech)'
p912
aS'OS'
p913
aS'3207'
p914
aS'10717'
p915
aa(lp916
S'NIT Raipur'
p917
aS'Computer Science & Eng.(4 yrs; BTech)'
p918
aS'OS'
p919
aS'6753'
p920
aS'10201'
p921
aa(lp922
S'NIT Warangal'
p923
aS'Electrical & Electronics Eng.(4 yrs; BTech)'
p924
aS'HS'
p925
aS'2191'
p926
aS'4951'
p927
aa(lp928
S'NIT Kurukshetra'
p929
aS'Information Technology (4 yrs; BTech)'
p930
aS'OS'
p931
aS'6543'
p932
aS'9249'
p933
aa(lp934
S'NIT Durgapur'
p935
aS'Electronics & Communication Eng.(4 yrs; BTech)'
p936
aS'HS'
p937
aS'6020'
p938
aS'17830'
p939
aa(lp940
S'Visvesvaraya NIT Nagpur'
p941
aS'Chemical Eng.(4 yrs; BTech)'
p942
aS'OS'
p943
aS'11312'
p944
aS'21279'
p945
aa(lp946
S'NIT Karnataka'
p947
aS'Civil Eng.(4 yrs; BTech)'
p948
aS'HS'
p949
aS'5670'
p950
aS'26147'
p951
aa(lp952
S'Dr. B R Ambedkar NIT Jalandhar'
p953
aS'Mechanical Eng.(4 yrs; BTech)'
p954
aS'HS'
p955
aS'14642'
p956
aS'24408'
p957
aa(lp958
S'NIT Raipur'
p959
aS'Electrical Eng.(4 yrs; BTech)'
p960
aS'HS'
p961
aS'19886'
p962
aS'38262'
p963
aa(lp964
S'Malaviya NIT Jaipur'
p965
aS'Electrical Eng.(4 yrs; BTech)'
p966
aS'HS'
p967
aS'3219'
p968
aS'8952'
p969
aa(lp970
S'Dr. B R Ambedkar NIT Jalandhar'
p971
aS'Chemical Eng.(4 yrs; BTech)'
p972
aS'OS'
p973
aS'17037'
p974
aS'24876'
p975
aa(lp976
S'NIT Calicut'
p977
aS'Architecture (5 yrs; BA)'
p978
aS'OS'
p979
aS'1303'
p980
aS'2092'
p981
aa(lp982
S'NIT Kurukshetra'
p983
aS'Mechanical Eng.(4 yrs; BTech)'
p984
aS'OS'
p985
aS'9003'
p986
aS'13251'
p987
aa(lp988
S'Dr. B R Ambedkar NIT Jalandhar'
p989
aS'Industrial & Production Eng.(4 yrs; BTech)'
p990
aS'OS'
p991
aS'22097'
p992
aS'29688'
p993
aa(lp994
S'Visvesvaraya NIT Nagpur'
p995
aS'Metallurgical & Materials Eng.(4 yrs; BTech)'
p996
aS'OS'
p997
aS'15662'
p998
aS'25652'
p999
aa(lp1000
S'Maulana Azad NIT Bhopal'
p1001
aS'Planning (4 yrs; Bachelor of Planning)'
p1002
aS'HS'
p1003
aS'4148'
p1004
aS'5493'
p1005
aa(lp1006
S'NIT Tiruchirappalli'
p1007
aS'Electrical & Electronics Eng.(4 yrs; BTech)'
p1008
aS'OS'
p1009
aS'539'
p1010
aS'3508'
p1011
aa(lp1012
S'Malaviya NIT Jaipur'
p1013
aS'Computer Science & Eng.(4 yrs; BTech)'
p1014
aS'HS'
p1015
aS'889'
p1016
aS'3476'
p1017
aa(lp1018
S'NIT Rourkela'
p1019
aS'Industrial Design (4 yrs; BTech)'
p1020
aS'OS'
p1021
aS'23397'
p1022
aS'30384'
p1023
aa(lp1024
S'NIT Kurukshetra'
p1025
aS'Civil Eng.(4 yrs; BTech)'
p1026
aS'HS'
p1027
aS'15865'
p1028
aS'24996'
p1029
aa(lp1030
S'Sardar Vallabhbhai NIT Surat'
p1031
aS'Civil Eng.(4 yrs; BTech)'
p1032
aS'OS'
p1033
aS'12506'
p1034
aS'17700'
p1035
aa(lp1036
S'NIT Srinagar'
p1037
aS'Mechanical Eng.(4 yrs; BTech)'
p1038
aS'OS'
p1039
aS'19142'
p1040
aS'32630'
p1041
aa(lp1042
S'NIT andhra Pradesh'
p1043
aS'Metallurgical & Materials Eng.(4 yrs; BTech)'
p1044
aS'HS'
p1045
aS'28849'
p1046
aS'34656'
p1047
aa(lp1048
S'Sardar Vallabhbhai NIT Surat'
p1049
aS'Mathematics (5 yrs; Integrated Master of Science)'
p1050
aS'OS'
p1051
aS'21578'
p1052
aS'32676'
p1053
aa(lp1054
S'NIT Karnataka'
p1055
aS'Mechanical Eng.(4 yrs; BTech)'
p1056
aS'HS'
p1057
aS'3006'
p1058
aS'11871'
p1059
aa(lp1060
S'NIT Rourkela'
p1061
aS'Electronics & Communication Eng.& M.Tech Communication & Network (5 yrs; B|MTech(Dual))'
p1062
aS'OS'
p1063
aS'10343'
p1064
aS'11091'
p1065
aa(lp1066
S'NIT Rourkela'
p1067
aS'Mining Eng.(4 yrs; BTech)'
p1068
aS'HS'
p1069
aS'23584'
p1070
aS'26399'
p1071
aa(lp1072
S'NIT Nagaland'
p1073
aS'Mechanical Eng.(4 yrs; BTech)'
p1074
aS'OS'
p1075
aS'34310'
p1076
aS'36437'
p1077
aa(lp1078
S'NIT Raipur'
p1079
aS'Architecture (5 yrs; BA)'
p1080
aS'OS'
p1081
aS'2476'
p1082
aS'3583'
p1083
aa(lp1084
S'Visvesvaraya NIT Nagpur'
p1085
aS'Chemical Eng.(4 yrs; BTech)'
p1086
aS'HS'
p1087
aS'8456'
p1088
aS'20609'
p1089
aa(lp1090
S'NIT Kurukshetra'
p1091
aS'Electrical Eng.(4 yrs; BTech)'
p1092
aS'OS'
p1093
aS'9033'
p1094
aS'14504'
p1095
aa(lp1096
S'NIT Durgapur'
p1097
aS'Metallurgical & Materials Eng.(4 yrs; BTech)'
p1098
aS'OS'
p1099
aS'24070'
p1100
aS'30879'
p1101
aa(lp1102
S'NIT Goa'
p1103
aS'Computer Science & Eng.(4 yrs; BTech)'
p1104
aS'OS'
p1105
aS'6119'
p1106
aS'8994'
p1107
aa(lp1108
S'NIT Silchar'
p1109
aS'Computer Science & Eng.(4 yrs; BTech)'
p1110
aS'HS'
p1111
aS'10105'
p1112
aS'30226'
p1113
aa(lp1114
S'NIT Sikkim'
p1115
aS'Electronics & Communication Eng.(4 yrs; BTech)'
p1116
aS'OS'
p1117
aS'28029'
p1118
aS'31288'
p1119
aa(lp1120
S'NIT Rourkela'
p1121
aS'Mathematics (5 yrs; Integrated Master of Science)'
p1122
aS'OS'
p1123
aS'22278'
p1124
aS'33612'
p1125
aa(lp1126
S'NIT Kurukshetra'
p1127
aS'Electronics & Communication Eng.(4 yrs; BTech)'
p1128
aS'OS'
p1129
aS'7894'
p1130
aS'11513'
p1131
aa(lp1132
S'NIT Hamirpur'
p1133
aS'Mechanical Eng.(4 yrs; BTech)'
p1134
aS'HS'
p1135
aS'9528'
p1136
aS'42162'
p1137
aa(lp1138
S'Dr. B R Ambedkar NIT Jalandhar'
p1139
aS'Chemical Eng.(4 yrs; BTech)'
p1140
aS'HS'
p1141
aS'24723'
p1142
aS'47227'
p1143
aa(lp1144
S'NIT Goa'
p1145
aS'Electrical & Electronics Eng.(4 yrs; BTech)'
p1146
aS'OS'
p1147
aS'14482.001'
p1148
aS'16015'
p1149
aa(lp1150
S'Malaviya NIT Jaipur'
p1151
aS'Computer Science & Eng.(4 yrs; BTech)'
p1152
aS'OS'
p1153
aS'2553'
p1154
aS'4731'
p1155
aa(lp1156
S'NIT Calicut'
p1157
aS'Architecture (5 yrs; BA)'
p1158
aS'HS'
p1159
aS'900'
p1160
aS'2136'
p1161
aa(lp1162
S'NIT Mizoram'
p1163
aS'Civil Eng.(4 yrs; BTech)'
p1164
aS'HS'
p1165
aS'283174'
p1166
aS'1074213'
p1167
aa(lp1168
S'NIT Durgapur'
p1169
aS'Electronics & Communication Eng.(4 yrs; BTech)'
p1170
aS'OS'
p1171
aS'6378'
p1172
aS'11179'
p1173
aa(lp1174
S'NIT Raipur'
p1175
aS'Computer Science & Eng.(4 yrs; BTech)'
p1176
aS'HS'
p1177
aS'5935'
p1178
aS'25185'
p1179
aa(lp1180
S'NIT Hamirpur'
p1181
aS'Electronics & Communication Eng.(4 yrs; BTech)'
p1182
aS'HS'
p1183
aS'12810'
p1184
aS'39918'
p1185
aa(lp1186
S'NIT Raipur'
p1187
aS'Electrical Eng.(4 yrs; BTech)'
p1188
aS'OS'
p1189
aS'11814'
p1190
aS'18660'
p1191
aa(lp1192
S'NIT Warangal'
p1193
aS'Electrical & Electronics Eng.(4 yrs; BTech)'
p1194
aS'OS'
p1195
aS'2176'
p1196
aS'4595'
p1197
aa(lp1198
S'Maulana Azad NIT Bhopal'
p1199
aS'Planning (4 yrs; Bachelor of Planning)'
p1200
aS'OS'
p1201
aS'3080'
p1202
aS'4309'
p1203
aa(lp1204
S'NIT Uttarakh&'
p1205
aS'Electronics & Communication Eng.(4 yrs; BTech)'
p1206
aS'OS'
p1207
aS'15153'
p1208
aS'24407'
p1209
aa(lp1210
S'Malaviya NIT Jaipur'
p1211
aS'Mechanical Eng.(4 yrs; BTech)'
p1212
aS'HS'
p1213
aS'3618'
p1214
aS'8386'
p1215
aa(lp1216
S'NIT Karnataka'
p1217
aS'Metallurgical & Materials Eng.(4 yrs; BTech)'
p1218
aS'HS'
p1219
aS'8050'
p1220
aS'28658'
p1221
aa(lp1222
S'NIT Rourkela'
p1223
aS'Computer Science & Eng.& M.Tech in Information Security (5 yrs; B|MTech(Dual))'
p1224
aS'HS'
p1225
aS'12337'
p1226
aS'15898'
p1227
aa(lp1228
S'Malaviya NIT Jaipur'
p1229
aS'Electronics & Communication Eng.(4 yrs; BTech)'
p1230
aS'OS'
p1231
aS'5714'
p1232
aS'8426'
p1233
aa(lp1234
S'NIT Calicut'
p1235
aS'Production Eng.(4 yrs; BTech)'
p1236
aS'HS'
p1237
aS'17278'
p1238
aS'21461'
p1239
aa(lp1240
S'Visvesvaraya NIT Nagpur'
p1241
aS'Metallurgical & Materials Eng.(4 yrs; BTech)'
p1242
aS'HS'
p1243
aS'10256'
p1244
aS'25426'
p1245
aa(lp1246
S'NIT Uttarakh&'
p1247
aS'Electrical & Electronics Eng.(4 yrs; BTech)'
p1248
aS'OS'
p1249
aS'19606'
p1250
aS'26626'
p1251
aa(lp1252
S'Malaviya NIT Jaipur'
p1253
aS'Architecture (5 yrs; BA)'
p1254
aS'HS'
p1255
aS'165'
p1256
aS'2475'
p1257
aa(lp1258
S'NIT Jamshedpur'
p1259
aS'Civil Eng.(4 yrs; BTech)'
p1260
aS'HS'
p1261
aS'22708'
p1262
aS'30172'
p1263
aa(lp1264
S'NIT Durgapur'
p1265
aS'Bio Technology (4 yrs; BTech)'
p1266
aS'HS'
p1267
aS'33652'
p1268
aS'44703'
p1269
aa(lp1270
S'NIT Warangal'
p1271
aS'Electronics & Communication Eng.(4 yrs; BTech)'
p1272
aS'HS'
p1273
aS'1328'
p1274
aS'2429'
p1275
aa(lp1276
S'NIT Raipur'
p1277
aS'Architecture (5 yrs; BA)'
p1278
aS'HS'
p1279
aS'2828'
p1280
aS'7321'
p1281
aa(lp1282
S'NIT Manipur'
p1283
aS'Computer Science & Eng.(4 yrs; BTech)'
p1284
aS'HS'
p1285
aS'79736'
p1286
aS'459666'
p1287
aa(lp1288
S'NIT Tiruchirappalli'
p1289
aS'Instrumentation & Control Eng.(4 yrs; BTech)'
p1290
aS'HS'
p1291
aS'8087'
p1292
aS'12735'
p1293
aa(lp1294
S'NIT Durgapur'
p1295
aS'Civil Eng.(4 yrs; BTech)'
p1296
aS'OS'
p1297
aS'17731'
p1298
aS'21326'
p1299
aa(lp1300
S'NIT Agartala'
p1301
aS'Electronics & Communication Eng.(4 yrs; BTech)'
p1302
aS'OS'
p1303
aS'17214'
p1304
aS'27916'
p1305
aa(lp1306
S'NIT Meghalaya'
p1307
aS'Civil Eng.(4 yrs; BTech)'
p1308
aS'HS'
p1309
aS'98482'
p1310
aS'122673'
p1311
aa(lp1312
S'NIT Sikkim'
p1313
aS'Computer Science & Eng.(4 yrs; BTech)'
p1314
aS'OS'
p1315
aS'21996'
p1316
aS'27897'
p1317
aa(lp1318
S'Dr. B R Ambedkar NIT Jalandhar'
p1319
aS'Instrumentation & Control Eng.(4 yrs; BTech)'
p1320
aS'OS'
p1321
aS'13083'
p1322
aS'28076'
p1323
aa(lp1324
S'Dr. B R Ambedkar NIT Jalandhar'
p1325
aS'Electronics & Communication Eng.(4 yrs; BTech)'
p1326
aS'OS'
p1327
aS'9038'
p1328
aS'14706'
p1329
aa(lp1330
S'NIT Durgapur'
p1331
aS'Computer Science & Eng.(4 yrs; BTech)'
p1332
aS'HS'
p1333
aS'4258'
p1334
aS'12121'
p1335
aa(lp1336
S'Dr. B R Ambedkar NIT Jalandhar'
p1337
aS'Civil Eng.(4 yrs; BTech)'
p1338
aS'OS'
p1339
aS'10539'
p1340
aS'21180'
p1341
aa(lp1342
S'NIT Calicut'
p1343
aS'Electrical & Electronics Eng.(4 yrs; BTech)'
p1344
aS'OS'
p1345
aS'4632'
p1346
aS'8945'
p1347
aa(lp1348
S'Visvesvaraya NIT Nagpur'
p1349
aS'Mechanical Eng.(4 yrs; BTech)'
p1350
aS'OS'
p1351
aS'6245'
p1352
aS'9870'
p1353
aa(lp1354
S'NIT Hamirpur'
p1355
aS'Electrical Eng.(4 yrs; BTech)'
p1356
aS'OS'
p1357
aS'9594'
p1358
aS'18182'
p1359
aa(lp1360
S'NIT Puducherry'
p1361
aS'Electrical & Electronics Eng.(4 yrs; BTech)'
p1362
aS'OS'
p1363
aS'10855'
p1364
aS'18612'
p1365
aa(lp1366
S'NIT Rourkela'
p1367
aS'Chemical Eng.(4 yrs; BTech)'
p1368
aS'HS'
p1369
aS'10679'
p1370
aS'18167'
p1371
aa(lp1372
S'NIT Jamshedpur'
p1373
aS'Metallurgical & Materials Eng.(4 yrs; BTech)'
p1374
aS'HS'
p1375
aS'23332'
p1376
aS'33589'
p1377
aa(lp1378
S'NIT Uttarakh&'
p1379
aS'Electronics & Communication Eng.(4 yrs; BTech)'
p1380
aS'HS'
p1381
aS'31644'
p1382
aS'51664'
p1383
aa(lp1384
S'NIT Puducherry'
p1385
aS'Mechanical Eng.(4 yrs; BTech)'
p1386
aS'OS'
p1387
aS'12268'
p1388
aS'18160'
p1389
aa(lp1390
S'NIT Rourkela'
p1391
aS'Electronics & Communication Eng.(4 yrs; BTech)'
p1392
aS'HS'
p1393
aS'8364'
p1394
aS'9953'
p1395
aa(lp1396
S'NIT Arunachal Pradesh'
p1397
aS'Mechanical Eng.(4 yrs; BTech)'
p1398
aS'HS'
p1399
aS'54912'
p1400
aS'119797'
p1401
aa(lp1402
S'NIT Kurukshetra'
p1403
aS'Production & Industrial Eng.(4 yrs; BTech)'
p1404
aS'HS'
p1405
aS'20888'
p1406
aS'29806'
p1407
aa(lp1408
S'NIT Durgapur'
p1409
aS'Bio Technology (4 yrs; BTech)'
p1410
aS'OS'
p1411
aS'23386'
p1412
aS'33937'
p1413
aa(lp1414
S'NIT Tiruchirappalli'
p1415
aS'Production Eng.(4 yrs; BTech)'
p1416
aS'OS'
p1417
aS'7985'
p1418
aS'15774'
p1419
aa(lp1420
S'Motilal Nehru NIT Allahabad'
p1421
aS'Production & Industrial Eng.(4 yrs; BTech)'
p1422
aS'HS'
p1423
aS'14086'
p1424
aS'18259'
p1425
aa(lp1426
S'NIT Jamshedpur'
p1427
aS'Electronics & Communication Eng.(4 yrs; BTech)'
p1428
aS'OS'
p1429
aS'6728'
p1430
aS'13291'
p1431
aa(lp1432
S'NIT Karnataka'
p1433
aS'Electrical & Electronics Eng.(4 yrs; BTech)'
p1434
aS'OS'
p1435
aS'2830'
p1436
aS'4915'
p1437
aa(lp1438
S'NIT Rourkela'
p1439
aS'Mining Eng.(5 yrs; B|MTech(Dual))'
p1440
aS'OS'
p1441
aS'32974'
p1442
aS'34269'
p1443
aa(lp1444
S'Visvesvaraya NIT Nagpur'
p1445
aS'Mining Eng.(4 yrs; BTech)'
p1446
aS'HS'
p1447
aS'30438'
p1448
aS'32360'
p1449
aa(lp1450
S'Motilal Nehru NIT Allahabad'
p1451
aS'Electrical Eng.(4 yrs; BTech)'
p1452
aS'OS'
p1453
aS'4149'
p1454
aS'8808'
p1455
aa(lp1456
S'NIT Uttarakh&'
p1457
aS'Mechanical Eng.(4 yrs; BTech)'
p1458
aS'HS'
p1459
aS'23850'
p1460
aS'40998'
p1461
aa(lp1462
S'Malaviya NIT Jaipur'
p1463
aS'Chemical Eng.(4 yrs; BTech)'
p1464
aS'OS'
p1465
aS'12740'
p1466
aS'19571'
p1467
aa(lp1468
S'NIT Rourkela'
p1469
aS'Electronics & Instrumentation Eng.(4 yrs; BTech)'
p1470
aS'HS'
p1471
aS'12133'
p1472
aS'15026'
p1473
aa(lp1474
S'NIT Patna'
p1475
aS'Electrical Eng.(4 yrs; BTech)'
p1476
aS'OS'
p1477
aS'17236'
p1478
aS'23776'
p1479
aa(lp1480
S'NIT Agartala'
p1481
aS'Chemical Eng.(4 yrs; BTech)'
p1482
aS'OS'
p1483
aS'26180'
p1484
aS'34758'
p1485
aa(lp1486
S'NIT Hamirpur'
p1487
aS'Computer Science & Eng.(4 yrs; BTech)'
p1488
aS'OS'
p1489
aS'5619'
p1490
aS'10495'
p1491
aa(lp1492
S'Dr. B R Ambedkar NIT Jalandhar'
p1493
aS'Computer Science & Eng.(4 yrs; BTech)'
p1494
aS'HS'
p1495
aS'5377'
p1496
aS'13108'
p1497
aa(lp1498
S'NIT Agartala'
p1499
aS'Physics (5 yrs; BSc & Master of Science (Dual))'
p1500
aS'HS'
p1501
aS'129205'
p1502
aS'212750'
p1503
aa(lp1504
S'NIT Raipur'
p1505
aS'Civil Eng.(4 yrs; BTech)'
p1506
aS'HS'
p1507
aS'21183'
p1508
aS'47014'
p1509
aa(lp1510
S'NIT Agartala'
p1511
aS'Production Eng.(4 yrs; BTech)'
p1512
aS'HS'
p1513
aS'204580'
p1514
aS'282713'
p1515
aa(lp1516
S'NIT Uttarakh&'
p1517
aS'Computer Science & Eng.(4 yrs; BTech)'
p1518
aS'OS'
p1519
aS'9200'
p1520
aS'18568'
p1521
aa(lp1522
S'NIT Srinagar'
p1523
aS'Electronics & Communication Eng.(4 yrs; BTech)'
p1524
aS'HS'
p1525
aS'22534'
p1526
aS'51759'
p1527
aa(lp1528
S'NIT Calicut'
p1529
aS'Bio Technology (4 yrs; BTech)'
p1530
aS'OS'
p1531
aS'21106'
p1532
aS'27230'
p1533
aa(lp1534
S'NIT Silchar'
p1535
aS'Civil Eng.(4 yrs; BTech)'
p1536
aS'HS'
p1537
aS'32114'
p1538
aS'56885'
p1539
aa(lp1540
S'Maulana Azad NIT Bhopal'
p1541
aS'Electronics & Communication Eng.(4 yrs; BTech)'
p1542
aS'HS'
p1543
aS'8694'
p1544
aS'15024'
p1545
aa(lp1546
S'NIT andhra Pradesh'
p1547
aS'Electronics & Communication Eng.(4 yrs; BTech)'
p1548
aS'OS'
p1549
aS'8366'
p1550
aS'18013'
p1551
aa(lp1552
S'NIT Karnataka'
p1553
aS'Chemical Eng.(4 yrs; BTech)'
p1554
aS'HS'
p1555
aS'3892'
p1556
aS'13731'
p1557
aa(lp1558
S'NIT Mizoram'
p1559
aS'Electronics & Communication Eng.(4 yrs; BTech)'
p1560
aS'HS'
p1561
aS'248139'
p1562
aS'894349'
p1563
aa(lp1564
S'NIT Calicut'
p1565
aS'Chemical Eng.(4 yrs; BTech)'
p1566
aS'HS'
p1567
aS'12612'
p1568
aS'20486'
p1569
aa(lp1570
S'NIT Karnataka'
p1571
aS'Computer Eng.(4 yrs; BTech)'
p1572
aS'HS'
p1573
aS'332.02'
p1574
aS'3130.001'
p1575
aa(lp1576
S'NIT Calicut'
p1577
aS'Mechanical Eng.(4 yrs; BTech)'
p1578
aS'OS'
p1579
aS'3906'
p1580
aS'9542'
p1581
aa(lp1582
S'NIT Karnataka'
p1583
aS'Mechanical Eng.(4 yrs; BTech)'
p1584
aS'OS'
p1585
aS'1411'
p1586
aS'5158'
p1587
aa(lp1588
S'NIT Raipur'
p1589
aS'Bio Medical Eng.(4 yrs; BTech)'
p1590
aS'OS'
p1591
aS'31832'
p1592
aS'38331'
p1593
aa(lp1594
S'NIT Manipur'
p1595
aS'Electrical Eng.(4 yrs; BTech)'
p1596
aS'HS'
p1597
aS'142319'
p1598
aS'274795'
p1599
aa(lp1600
S'Visvesvaraya NIT Nagpur'
p1601
aS'Architecture (5 yrs; BA)'
p1602
aS'OS'
p1603
aS'1398'
p1604
aS'2796'
p1605
aa(lp1606
S'NIT Rourkela'
p1607
aS'Civil Eng.(4 yrs; BTech)'
p1608
aS'OS'
p1609
aS'8738'
p1610
aS'16801'
p1611
aa(lp1612
S'NIT Kurukshetra'
p1613
aS'Civil Eng.(4 yrs; BTech)'
p1614
aS'OS'
p1615
aS'13189'
p1616
aS'18656'
p1617
aa(lp1618
S'NIT Calicut'
p1619
aS'Electronics & Communication Eng.(4 yrs; BTech)'
p1620
aS'HS'
p1621
aS'1087'
p1622
aS'12416'
p1623
aa(lp1624
S'NIT andhra Pradesh'
p1625
aS'Computer Science & Eng.(4 yrs; BTech)'
p1626
aS'HS'
p1627
aS'4729'
p1628
aS'12099'
p1629
aa(lp1630
S'NIT andhra Pradesh'
p1631
aS'Metallurgical & Materials Eng.(4 yrs; BTech)'
p1632
aS'OS'
p1633
aS'29815'
p1634
aS'32541'
p1635
aa(lp1636
S'Malaviya NIT Jaipur'
p1637
aS'Civil Eng.(4 yrs; BTech)'
p1638
aS'HS'
p1639
aS'4670'
p1640
aS'12406'
p1641
aa(lp1642
S'NIT Jamshedpur'
p1643
aS'Electrical & Electronics Eng.(4 yrs; BTech)'
p1644
aS'HS'
p1645
aS'16935'
p1646
aS'22617'
p1647
aa(lp1648
S'NIT Srinagar'
p1649
aS'Computer Science & Eng.(4 yrs; BTech)'
p1650
aS'OS'
p1651
aS'11546'
p1652
aS'24484'
p1653
aa(lp1654
S'NIT Uttarakh&'
p1655
aS'Civil Eng.(4 yrs; BTech)'
p1656
aS'OS'
p1657
aS'24159'
p1658
aS'28339'
p1659
aa(lp1660
S'NIT Rourkela'
p1661
aS'Computer Science & Eng.& M.Tech Computer Science (5 yrs; B|MTech(Dual))'
p1662
aS'HS'
p1663
aS'8646'
p1664
aS'11896.001'
p1665
aa(lp1666
S'NIT Meghalaya'
p1667
aS'Computer Science & Eng.(4 yrs; BTech)'
p1668
aS'OS'
p1669
aS'14675'
p1670
aS'25687'
p1671
aa(lp1672
S'NIT Tiruchirappalli'
p1673
aS'Computer Science & Eng.(4 yrs; BTech)'
p1674
aS'OS'
p1675
aS'97'
p1676
aS'621'
p1677
aa(lp1678
S'NIT Rourkela'
p1679
aS'Bio Medical Eng.(4 yrs; BTech)'
p1680
aS'OS'
p1681
aS'17260'
p1682
aS'34051'
p1683
aa(lp1684
S'NIT Rourkela'
p1685
aS'Electrical Eng.(4 yrs; BTech)'
p1686
aS'HS'
p1687
aS'6477'
p1688
aS'12911'
p1689
aa(lp1690
S'Sardar Vallabhbhai NIT Surat'
p1691
aS'Electronics & Communication Eng.(4 yrs; BTech)'
p1692
aS'HS'
p1693
aS'5191'
p1694
aS'18192'
p1695
aa(lp1696
S'NIT Agartala'
p1697
aS'Mathematics (5 yrs; BSc & Master of Science (Dual))'
p1698
aS'OS'
p1699
aS'28715'
p1700
aS'38556'
p1701
aa(lp1702
S'NIT Raipur'
p1703
aS'Electronics & Telecommunication Eng.(4 yrs; BTech)'
p1704
aS'OS'
p1705
aS'10651'
p1706
aS'15904'
p1707
aa(lp1708
S'NIT Warangal'
p1709
aS'Bio Technology (4 yrs; BTech)'
p1710
aS'OS'
p1711
aS'7380'
p1712
aS'23747'
p1713
aa(lp1714
S'NIT Karnataka'
p1715
aS'Electronics & Communication Eng.(4 yrs; BTech)'
p1716
aS'OS'
p1717
aS'1745'
p1718
aS'3104'
p1719
aa(lp1720
S'NIT Rourkela'
p1721
aS'Mining Eng.(4 yrs; BTech)'
p1722
aS'OS'
p1723
aS'16368'
p1724
aS'28510'
p1725
aa(lp1726
S'NIT Jamshedpur'
p1727
aS'Production & Industrial Eng.(4 yrs; BTech)'
p1728
aS'HS'
p1729
aS'28775'
p1730
aS'35764'
p1731
aa(lp1732
S'NIT Warangal'
p1733
aS'Bio Technology (4 yrs; BTech)'
p1734
aS'AP'
p1735
aS'23973'
p1736
aS'29270'
p1737
aa(lp1738
S'NIT andhra Pradesh'
p1739
aS'Chemical Eng.(4 yrs; BTech)'
p1740
aS'OS'
p1741
aS'25562'
p1742
aS'28411'
p1743
aa(lp1744
S'NIT Patna'
p1745
aS'Information Technology (4 yrs; BTech)'
p1746
aS'HS'
p1747
aS'16606'
p1748
aS'25377'
p1749
aa(lp1750
S'NIT Warangal'
p1751
aS'Electrical & Electronics Eng.(4 yrs; BTech)'
p1752
aS'AP'
p1753
aS'4634'
p1754
aS'5201'
p1755
aa(lp1756
S'NIT Mizoram'
p1757
aS'Civil Eng.(4 yrs; BTech)'
p1758
aS'OS'
p1759
aS'37072'
p1760
aS'38147'
p1761
aa(lp1762
S'NIT Durgapur'
p1763
aS'Information Technology (4 yrs; BTech)'
p1764
aS'HS'
p1765
aS'13659'
p1766
aS'29896'
p1767
aa(lp1768
S'NIT Hamirpur'
p1769
aS'Electronics & Communication Eng.(4 yrs; BTech)'
p1770
aS'OS'
p1771
aS'11141'
p1772
aS'15939'
p1773
aa(lp1774
S'Maulana Azad NIT Bhopal'
p1775
aS'Architecture (5 yrs; BA)'
p1776
aS'HS'
p1777
aS'1781'
p1778
aS'3734'
p1779
aa(lp1780
S'NIT Rourkela'
p1781
aS'Mechanical Eng.(4 yrs; BTech)'
p1782
aS'OS'
p1783
aS'5286'
p1784
aS'11337'
p1785
aa(lp1786
S'NIT Raipur'
p1787
aS'Mining Eng.(4 yrs; BTech)'
p1788
aS'HS'
p1789
aS'48335'
p1790
aS'69320'
p1791
aa(lp1792
S'NIT Rourkela'
p1793
aS'Architecture (5 yrs; BA)'
p1794
aS'OS'
p1795
aS'2567'
p1796
aS'2943'
p1797
aa(lp1798
S'NIT Srinagar'
p1799
aS'Information Technology (4 yrs; BTech)'
p1800
aS'HS'
p1801
aS'44538'
p1802
aS'56504'
p1803
aa(lp1804
S'NIT Raipur'
p1805
aS'Civil Eng.(4 yrs; BTech)'
p1806
aS'OS'
p1807
aS'16133'
p1808
aS'23564'
p1809
aa(lp1810
S'NIT Calicut'
p1811
aS'Production Eng.(4 yrs; BTech)'
p1812
aS'OS'
p1813
aS'15832'
p1814
aS'19748'
p1815
aa(lp1816
S'NIT Manipur'
p1817
aS'Mechanical Eng.(4 yrs; BTech)'
p1818
aS'HS'
p1819
aS'67483'
p1820
aS'396944'
p1821
aa(lp1822
S'Sardar Vallabhbhai NIT Surat'
p1823
aS'Physics (5 yrs; Integrated Master of Science)'
p1824
aS'OS'
p1825
aS'10318'
p1826
aS'31205'
p1827
aa(lp1828
S'NIT Karnataka'
p1829
aS'Metallurgical & Materials Eng.(4 yrs; BTech)'
p1830
aS'OS'
p1831
aS'9180'
p1832
aS'19385'
p1833
aa(lp1834
S'NIT Arunachal Pradesh'
p1835
aS'Electrical Eng.(4 yrs; BTech)'
p1836
aS'HS'
p1837
aS'158971'
p1838
aS'167392'
p1839
aa(lp1840
S'NIT Rourkela'
p1841
aS'Computer Science & Eng.& M.Tech in Information Security (5 yrs; B|MTech(Dual))'
p1842
aS'OS'
p1843
aS'5130'
p1844
aS'8675'
p1845
aa(lp1846
S'NIT Manipur'
p1847
aS'Electrical Eng.(4 yrs; BTech)'
p1848
aS'OS'
p1849
aS'35170'
p1850
aS'36378'
p1851
aa(lp1852
S'NIT Raipur'
p1853
aS'Bio Medical Eng.(4 yrs; BTech)'
p1854
aS'HS'
p1855
aS'70600'
p1856
aS'90465'
p1857
aa(lp1858
S'NIT Raipur'
p1859
aS'Metallurgical Eng.(4 yrs; BTech)'
p1860
aS'HS'
p1861
aS'48293'
p1862
aS'70789'
p1863
aa(lp1864
S'NIT Rourkela'
p1865
aS'Civil Eng.(4 yrs; BTech)'
p1866
aS'HS'
p1867
aS'12961'
p1868
aS'15775'
p1869
aa(lp1870
S'NIT Calicut'
p1871
aS'Chemical Eng.(4 yrs; BTech)'
p1872
aS'OS'
p1873
aS'12459'
p1874
aS'19309'
p1875
aa(lp1876
S'NIT Tiruchirappalli'
p1877
aS'Electrical & Electronics Eng.(4 yrs; BTech)'
p1878
aS'HS'
p1879
aS'2829'
p1880
aS'8810'
p1881
aa(lp1882
S'NIT Rourkela'
p1883
aS'Food Process Eng.(4 yrs; BTech)'
p1884
aS'HS'
p1885
aS'36149'
p1886
aS'47295'
p1887
aa(lp1888
S'NIT Rourkela'
p1889
aS'Computer Science & Eng.(4 yrs; BTech)'
p1890
aS'HS'
p1891
aS'805'
p1892
aS'8245'
p1893
aa(lp1894
S'NIT Uttarakh&'
p1895
aS'Civil Eng.(4 yrs; BTech)'
p1896
aS'HS'
p1897
aS'38977'
p1898
aS'56366'
p1899
aa(lp1900
S'NIT Srinagar'
p1901
aS'Chemical Eng.(4 yrs; BTech)'
p1902
aS'HS'
p1903
aS'51384'
p1904
aS'66767'
p1905
aa(lp1906
S'NIT Raipur'
p1907
aS'Bio Technology (4 yrs; BTech)'
p1908
aS'HS'
p1909
aS'58351'
p1910
aS'79831'
p1911
aa(lp1912
S'NIT Tiruchirappalli'
p1913
aS'Computer Science & Eng.(4 yrs; BTech)'
p1914
aS'HS'
p1915
aS'456'
p1916
aS'2636'
p1917
aa(lp1918
S'NIT andhra Pradesh'
p1919
aS'Computer Science & Eng.(4 yrs; BTech)'
p1920
aS'OS'
p1921
aS'4863'
p1922
aS'12379'
p1923
aa(lp1924
S'NIT Karnataka'
p1925
aS'Computer Eng.(4 yrs; BTech)'
p1926
aS'OS'
p1927
aS'266'
p1928
aS'1246'
p1929
aa(lp1930
S'NIT Srinagar'
p1931
aS'Computer Science & Eng.(4 yrs; BTech)'
p1932
aS'HS'
p1933
aS'9525'
p1934
aS'34094'
p1935
aa(lp1936
S'Sardar Vallabhbhai NIT Surat'
p1937
aS'Electronics & Communication Eng.(4 yrs; BTech)'
p1938
aS'OS'
p1939
aS'5569'
p1940
aS'8286'
p1941
aa(lp1942
S'NIT Warangal'
p1943
aS'Computer Science & Eng.(4 yrs; BTech)'
p1944
aS'HS'
p1945
aS'247'
p1946
aS'1439'
p1947
aa(lp1948
S'NIT Agartala'
p1949
aS'Mathematics (5 yrs; BSc & Master of Science (Dual))'
p1950
aS'HS'
p1951
aS'127540'
p1952
aS'281156'
p1953
aa(lp1954
S'NIT Jamshedpur'
p1955
aS'Production & Industrial Eng.(4 yrs; BTech)'
p1956
aS'OS'
p1957
aS'20314'
p1958
aS'28841'
p1959
aa(lp1960
S'Visvesvaraya NIT Nagpur'
p1961
aS'Civil Eng.(4 yrs; BTech)'
p1962
aS'HS'
p1963
aS'8150'
p1964
aS'17904'
p1965
aa(lp1966
S'NIT Rourkela'
p1967
aS'Ceramic Eng.(4 yrs; BTech)'
p1968
aS'OS'
p1969
aS'24953'
p1970
aS'34382'
p1971
aa(lp1972
S'NIT Rourkela'
p1973
aS'Electrical Eng.(4 yrs; BTech)'
p1974
aS'OS'
p1975
aS'6933'
p1976
aS'11583'
p1977
aa(lp1978
S'NIT Rourkela'
p1979
aS'Life Science (5 yrs; Integrated Master of Science)'
p1980
aS'HS'
p1981
aS'55969'
p1982
aS'71467'
p1983
aa(lp1984
S'NIT Kurukshetra'
p1985
aS'Information Technology (4 yrs; BTech)'
p1986
aS'HS'
p1987
aS'7541'
p1988
aS'10769'
p1989
aa(lp1990
S'Dr. B R Ambedkar NIT Jalandhar'
p1991
aS'Mechanical Eng.(4 yrs; BTech)'
p1992
aS'OS'
p1993
aS'11795'
p1994
aS'16490'
p1995
aa(lp1996
S'NIT Rourkela'
p1997
aS'Metallurgical & Materials Eng.(5 yrs; B|MTech(Dual))'
p1998
aS'HS'
p1999
aS'27461'
p2000
aS'29567'
p2001
aa(lp2002
S'Malaviya NIT Jaipur'
p2003
aS'Electrical Eng.(4 yrs; BTech)'
p2004
aS'OS'
p2005
aS'8779'
p2006
aS'11975'
p2007
aa(lp2008
S'Maulana Azad NIT Bhopal'
p2009
aS'Architecture (5 yrs; BA)'
p2010
aS'OS'
p2011
aS'1216'
p2012
aS'2850'
p2013
aa(lp2014
S'NIT Kurukshetra'
p2015
aS'Mechanical Eng.(4 yrs; BTech)'
p2016
aS'HS'
p2017
aS'6225'
p2018
aS'16516'
p2019
aa(lp2020
S'NIT Patna'
p2021
aS'Information Technology (4 yrs; BTech)'
p2022
aS'OS'
p2023
aS'13520'
p2024
aS'20257'
p2025
aa(lp2026
S'NIT Raipur'
p2027
aS'Mining Eng.(4 yrs; BTech)'
p2028
aS'OS'
p2029
aS'20898'
p2030
aS'33147'
p2031
aa(lp2032
S'NIT Meghalaya'
p2033
aS'Computer Science & Eng.(4 yrs; BTech)'
p2034
aS'HS'
p2035
aS'32925'
p2036
aS'64133'
p2037
aa(lp2038
S'NIT Karnataka'
p2039
aS'Civil Eng.(4 yrs; BTech)'
p2040
aS'OS'
p2041
aS'4712'
p2042
aS'10294'
p2043
aa(lp2044
S'Dr. B R Ambedkar NIT Jalandhar'
p2045
aS'Industrial & Production Eng.(4 yrs; BTech)'
p2046
aS'HS'
p2047
aS'36922'
p2048
aS'61893'
p2049
aa(lp2050
S'NIT Arunachal Pradesh'
p2051
aS'Mechanical Eng.(4 yrs; BTech)'
p2052
aS'OS'
p2053
aS'26270'
p2054
aS'30332'
p2055
aa(lp2056
S'NIT Kurukshetra'
p2057
aS'Computer Eng.(4 yrs; BTech)'
p2058
aS'OS'
p2059
aS'3717'
p2060
aS'6228'
p2061
aa(lp2062
S'NIT Arunachal Pradesh'
p2063
aS'Electrical Eng.(4 yrs; BTech)'
p2064
aS'OS'
p2065
aS'26015'
p2066
aS'33795'
p2067
aa(lp2068
S'NIT Agartala'
p2069
aS'Eng.Physics (5 yrs; B|MTech(Dual))'
p2070
aS'OS'
p2071
aS'21882'
p2072
aS'38152'
p2073
aa(lp2074
S'NIT Rourkela'
p2075
aS'Electronics & Communication Eng.(4 yrs; BTech)'
p2076
aS'OS'
p2077
aS'4487'
p2078
aS'6343'
p2079
aa(lp2080
S'NIT Tiruchirappalli'
p2081
aS'Metallurgical & Materials Eng.(4 yrs; BTech)'
p2082
aS'HS'
p2083
aS'15008'
p2084
aS'26489'
p2085
aa(lp2086
S'NIT Warangal'
p2087
aS'Mechanical Eng.(4 yrs; BTech)'
p2088
aS'AP'
p2089
aS'4699'
p2090
aS'5441'
p2091
aa(lp2092
S'Motilal Nehru NIT Allahabad'
p2093
aS'Bio Technology (4 yrs; BTech)'
p2094
aS'HS'
p2095
aS'14270'
p2096
aS'24307'
p2097
aa(lp2098
S'NIT Rourkela'
p2099
aS'Electronics & Instrumentation Eng.& M.Tech VLSI Design & Embedded (5 yrs; B|MTech(Dual))'
p2100
aS'HS'
p2101
aS'19927'
p2102
aS'25407'
p2103
aa(lp2104
S'Dr. B R Ambedkar NIT Jalandhar'
p2105
aS'Textile Technology (4 yrs; BTech)'
p2106
aS'HS'
p2107
aS'59753'
p2108
aS'68837'
p2109
aa(lp2110
S'NIT Rourkela'
p2111
aS'Chemical Eng.(5 yrs; B|MTech(Dual))'
p2112
aS'OS'
p2113
aS'18888'
p2114
aS'21831'
p2115
aa(lp2116
S'NIT Karnataka'
p2117
aS'Electrical & Electronics Eng.(4 yrs; BTech)'
p2118
aS'HS'
p2119
aS'5656'
p2120
aS'9880'
p2121
aa(lp2122
S'Sardar Vallabhbhai NIT Surat'
p2123
aS'Chemical Eng.(4 yrs; BTech)'
p2124
aS'OS'
p2125
aS'11084'
p2126
aS'19841'
p2127
aa(lp2128
S'NIT Srinagar'
p2129
aS'Civil Eng.(4 yrs; BTech)'
p2130
aS'HS'
p2131
aS'9232'
p2132
aS'39184'
p2133
aa(lp2134
S'NIT Raipur'
p2135
aS'Bio Technology (4 yrs; BTech)'
p2136
aS'OS'
p2137
aS'22128'
p2138
aS'36607'
p2139
aa(lp2140
S'NIT Rourkela'
p2141
aS'Mining Eng.(5 yrs; B|MTech(Dual))'
p2142
aS'HS'
p2143
aS'30437'
p2144
aS'34139'
p2145
aa(lp2146
S'NIT Warangal'
p2147
aS'Electronics & Communication Eng.(4 yrs; BTech)'
p2148
aS'AP'
p2149
aS'2935'
p2150
aS'3190'
p2151
aa(lp2152
S'NIT Kurukshetra'
p2153
aS'Production & Industrial Eng.(4 yrs; BTech)'
p2154
aS'OS'
p2155
aS'19041'
p2156
aS'27135'
p2157
aa(lp2158
S'Visvesvaraya NIT Nagpur'
p2159
aS'Mining Eng.(4 yrs; BTech)'
p2160
aS'OS'
p2161
aS'21292'
p2162
aS'27673'
p2163
aa(lp2164
S'NIT Durgapur'
p2165
aS'Chemical Eng.(4 yrs; BTech)'
p2166
aS'HS'
p2167
aS'8414'
p2168
aS'33114'
p2169
aa(lp2170
S'NIT Karnataka'
p2171
aS'Electronics & Communication Eng.(4 yrs; BTech)'
p2172
aS'HS'
p2173
aS'579'
p2174
aS'4511'
p2175
aa(lp2176
S'NIT Calicut'
p2177
aS'Bio Technology (4 yrs; BTech)'
p2178
aS'HS'
p2179
aS'20220'
p2180
aS'27323'
p2181
aa(lp2182
S'NIT Silchar'
p2183
aS'Civil Eng.(4 yrs; BTech)'
p2184
aS'OS'
p2185
aS'21150'
p2186
aS'30472'
p2187
aa(lp2188
S'NIT Hamirpur'
p2189
aS'Computer Science & Eng.(4 yrs; BTech)'
p2190
aS'HS'
p2191
aS'6473'
p2192
aS'23202'
p2193
aa(lp2194
S'Dr. B R Ambedkar NIT Jalandhar'
p2195
aS'Computer Science & Eng.(4 yrs; BTech)'
p2196
aS'OS'
p2197
aS'6209'
p2198
aS'8925'
p2199
aa(lp2200
S'NIT Patna'
p2201
aS'Civil Eng.(4 yrs; BTech)'
p2202
aS'HS'
p2203
aS'16871'
p2204
aS'26097'
p2205
aa(lp2206
S'NIT Agartala'
p2207
aS'Chemical Eng.(4 yrs; BTech)'
p2208
aS'HS'
p2209
aS'175884'
p2210
aS'238115'
p2211
aa(lp2212
S'NIT Uttarakh&'
p2213
aS'Mechanical Eng.(4 yrs; BTech)'
p2214
aS'OS'
p2215
aS'19009'
p2216
aS'24830'
p2217
aa(lp2218
S'Maulana Azad NIT Bhopal'
p2219
aS'Electronics & Communication Eng.(4 yrs; BTech)'
p2220
aS'OS'
p2221
aS'5257'
p2222
aS'8902'
p2223
aa(lp2224
S'Visvesvaraya NIT Nagpur'
p2225
aS'Computer Science & Eng.(4 yrs; BTech)'
p2226
aS'OS'
p2227
aS'2016'
p2228
aS'3661'
p2229
aa(lp2230
S'Motilal Nehru NIT Allahabad'
p2231
aS'Mechanical Eng.(4 yrs; BTech)'
p2232
aS'HS'
p2233
aS'4232'
p2234
aS'8809'
p2235
aa(lp2236
S'NIT Srinagar'
p2237
aS'Electronics & Communication Eng.(4 yrs; BTech)'
p2238
aS'OS'
p2239
aS'21650'
p2240
aS'33057'
p2241
aa(lp2242
S'NIT Uttarakh&'
p2243
aS'Computer Science & Eng.(4 yrs; BTech)'
p2244
aS'HS'
p2245
aS'7138'
p2246
aS'32722'
p2247
aa(lp2248
S'NIT Rourkela'
p2249
aS'Chemistry (5 yrs; Integrated Master of Science)'
p2250
aS'OS'
p2251
aS'27724'
p2252
aS'37882'
p2253
aa(lp2254
S'Visvesvaraya NIT Nagpur'
p2255
aS'Architecture (5 yrs; BA)'
p2256
aS'HS'
p2257
aS'575'
p2258
aS'2178'
p2259
aa(lp2260
S'NIT Manipur'
p2261
aS'Civil Eng.(4 yrs; BTech)'
p2262
aS'HS'
p2263
aS'55304'
p2264
aS'158859'
p2265
aa(lp2266
S'NIT Karnataka'
p2267
aS'Chemical Eng.(4 yrs; BTech)'
p2268
aS'OS'
p2269
aS'2275'
p2270
aS'11967'
p2271
aa(lp2272
S'NIT Mizoram'
p2273
aS'Electronics & Communication Eng.(4 yrs; BTech)'
p2274
aS'OS'
p2275
aS'33215'
p2276
aS'36318'
p2277
aa(lp2278
S'NIT Sikkim'
p2279
aS'Mechanical Eng.(4 yrs; BTech)'
p2280
aS'HS'
p2281
aS'292945'
p2282
aS'976150'
p2283
aa(lp2284
S'NIT Agartala'
p2285
aS'Production Eng.(4 yrs; BTech)'
p2286
aS'OS'
p2287
aS'32431'
p2288
aS'40689'
p2289
aa(lp2290
S'Motilal Nehru NIT Allahabad'
p2291
aS'Civil Eng.(4 yrs; BTech)'
p2292
aS'OS'
p2293
aS'6366'
p2294
aS'13321'
p2295
aa(lp2296
S'Motilal Nehru NIT Allahabad'
p2297
aS'Electrical Eng.(4 yrs; BTech)'
p2298
aS'HS'
p2299
aS'3687'
p2300
aS'9172'
p2301
aa(lp2302
S'NIT Rourkela'
p2303
aS'Electronics & Instrumentation Eng.& M.Tech VLSI Design & Embedded (5 yrs; B|MTech(Dual))'
p2304
aS'OS'
p2305
aS'12289'
p2306
aS'16552'
p2307
aa(lp2308
S'NIT andhra Pradesh'
p2309
aS'Electrical & Electronics Eng.(4 yrs; BTech)'
p2310
aS'HS'
p2311
aS'13481'
p2312
aS'22703'
p2313
aa(lp2314
S'NIT Arunachal Pradesh'
p2315
aS'Computer Science & Eng.(4 yrs; BTech)'
p2316
aS'HS'
p2317
aS'62380'
p2318
aS'78816'
p2319
aa(lp2320
S'NIT Srinagar'
p2321
aS'Electrical Eng.(4 yrs; BTech)'
p2322
aS'OS'
p2323
aS'25023'
p2324
aS'33933'
p2325
aa(lp2326
S'NIT Mizoram'
p2327
aS'Mechanical Eng.(4 yrs; BTech)'
p2328
aS'OS'
p2329
aS'32122'
p2330
aS'36991'
p2331
aa(lp2332
S'NIT Agartala'
p2333
aS'Bio Eng.(4 yrs; BTech)'
p2334
aS'OS'
p2335
aS'18939'
p2336
aS'39956'
p2337
aa(lp2338
S'NIT Rourkela'
p2339
aS'Bio Technology (4 yrs; BTech)'
p2340
aS'OS'
p2341
aS'21972'
p2342
aS'32648'
p2343
aa(lp2344
S'NIT Sikkim'
p2345
aS'Electrical & Electronics Eng.(4 yrs; BTech)'
p2346
aS'HS'
p2347
aS'255760'
p2348
aS'946861'
p2349
aa(lp2350
S'NIT Meghalaya'
p2351
aS'Mechanical Eng.(4 yrs; BTech)'
p2352
aS'HS'
p2353
aS'96715'
p2354
aS'100751'
p2355
aa(lp2356
S'NIT Nagaland'
p2357
aS'Computer Science & Eng.(4 yrs; BTech)'
p2358
aS'OS'
p2359
aS'19719'
p2360
aS'32238'
p2361
aa(lp2362
S'NIT Silchar'
p2363
aS'Electronics & Instrumentation Eng.(4 yrs; BTech)'
p2364
aS'HS'
p2365
aS'45692'
p2366
aS'58691'
p2367
aa(lp2368
S'NIT Arunachal Pradesh'
p2369
aS'Bio Technology (4 yrs; BTech)'
p2370
aS'OS'
p2371
aS'39824'
p2372
aS'43123'
p2373
aa(lp2374
S'NIT Calicut'
p2375
aS'Computer Science & Eng.(4 yrs; BTech)'
p2376
aS'HS'
p2377
aS'1346'
p2378
aS'8137'
p2379
aa(lp2380
S'Maulana Azad NIT Bhopal'
p2381
aS'Materials Science & Metallurgical Eng.(4 yrs; BTech)'
p2382
aS'OS'
p2383
aS'21275'
p2384
aS'26881'
p2385
aa(lp2386
S'NIT Jamshedpur'
p2387
aS'Computer Science & Eng.(4 yrs; BTech)'
p2388
aS'HS'
p2389
aS'7891'
p2390
aS'14393'
p2391
aa(lp2392
S'NIT andhra Pradesh'
p2393
aS'Bio Technology (4 yrs; BTech)'
p2394
aS'HS'
p2395
aS'30554'
p2396
aS'35021'
p2397
aa(lp2398
S'Dr. B R Ambedkar NIT Jalandhar'
p2399
aS'Textile Technology (4 yrs; BTech)'
p2400
aS'OS'
p2401
aS'12799'
p2402
aS'35404'
p2403
aa(lp2404
S'NIT Puducherry'
p2405
aS'Electronics & Communication Eng.(4 yrs; BTech)'
p2406
aS'OS'
p2407
aS'9214'
p2408
aS'15671'
p2409
aa(lp2410
S'NIT Sikkim'
p2411
aS'Mechanical Eng.(4 yrs; BTech)'
p2412
aS'OS'
p2413
aS'25072'
p2414
aS'31782'
p2415
aa(lp2416
S'NIT Patna'
p2417
aS'Chemistry (5 yrs; Integrated Master of Science)'
p2418
aS'OS'
p2419
aS'38673'
p2420
aS'40825'
p2421
aa(lp2422
S'NIT Srinagar'
p2423
aS'Metallurgical & Materials Eng.(4 yrs; BTech)'
p2424
aS'HS'
p2425
aS'53562'
p2426
aS'80116'
p2427
aa(lp2428
S'NIT Rourkela'
p2429
aS'Electrical Eng.& M.Tech Electronic Systems & Communications (5 yrs; B|MTech(Dual))'
p2430
aS'HS'
p2431
aS'20098'
p2432
aS'20308'
p2433
aa(lp2434
S'Sardar Vallabhbhai NIT Surat'
p2435
aS'Mechanical Eng.(4 yrs; BTech)'
p2436
aS'OS'
p2437
aS'2148'
p2438
aS'11584'
p2439
aa(lp2440
S'NIT Agartala'
p2441
aS'Chemistry (5 yrs; BSc & Master of Science (Dual))'
p2442
aS'OS'
p2443
aS'39412'
p2444
aS'43818'
p2445
aa(lp2446
S'NIT Durgapur'
p2447
aS'Chemical Eng.(4 yrs; BTech)'
p2448
aS'OS'
p2449
aS'17447'
p2450
aS'23403'
p2451
aa(lp2452
S'NIT Jamshedpur'
p2453
aS'Mechanical Eng.(4 yrs; BTech)'
p2454
aS'HS'
p2455
aS'11979'
p2456
aS'20909'
p2457
aa(lp2458
S'NIT Rourkela'
p2459
aS'Electrical Eng.& M.Tech Power Electronics & Drives (5 yrs; B|MTech(Dual))'
p2460
aS'HS'
p2461
aS'15921'
p2462
aS'21752'
p2463
aa(lp2464
S'NIT Silchar'
p2465
aS'Electronics & Communication Eng.(4 yrs; BTech)'
p2466
aS'HS'
p2467
aS'15623'
p2468
aS'43285'
p2469
aa(lp2470
S'NIT Calicut'
p2471
aS'Eng.Physics (4 yrs; BTech)'
p2472
aS'OS'
p2473
aS'7613'
p2474
aS'16946'
p2475
aa(lp2476
S'NIT Tiruchirappalli'
p2477
aS'Chemical Eng.(4 yrs; BTech)'
p2478
aS'HS'
p2479
aS'1424'
p2480
aS'13779'
p2481
aa(lp2482
S'NIT Nagaland'
p2483
aS'Electrical & Electronics Eng.(4 yrs; BTech)'
p2484
aS'OS'
p2485
aS'27730'
p2486
aS'37109'
p2487
aa(lp2488
S'NIT Durgapur'
p2489
aS'Electrical Eng.(4 yrs; BTech)'
p2490
aS'OS'
p2491
aS'9949'
p2492
aS'16380'
p2493
aa(lp2494
S'Visvesvaraya NIT Nagpur'
p2495
aS'Electrical & Electronics Eng.(4 yrs; BTech)'
p2496
aS'OS'
p2497
aS'4872'
p2498
aS'8898'
p2499
aa(lp2500
S'Motilal Nehru NIT Allahabad'
p2501
aS'Mechanical Eng.(4 yrs; BTech)'
p2502
aS'OS'
p2503
aS'1593'
p2504
aS'8240'
p2505
aa(lp2506
S'NIT Karnataka'
p2507
aS'Mining Eng.(4 yrs; BTech)'
p2508
aS'OS'
p2509
aS'11803'
p2510
aS'20984'
p2511
aa(lp2512
S'NIT Rourkela'
p2513
aS'Civil Eng.& M.Tech in Water Resources (5 yrs; B|MTech(Dual))'
p2514
aS'HS'
p2515
aS'25586'
p2516
aS'28998'
p2517
aa(lp2518
S'Sardar Vallabhbhai NIT Surat'
p2519
aS'Electrical Eng.(4 yrs; BTech)'
p2520
aS'HS'
p2521
aS'7016'
p2522
aS'16767'
p2523
aa(lp2524
S'NIT Agartala'
p2525
aS'Computer Science & Eng.(4 yrs; BTech)'
p2526
aS'OS'
p2527
aS'8312'
p2528
aS'20037'
p2529
aa(lp2530
S'NIT Patna'
p2531
aS'Computer Science & Eng.(4 yrs; BTech)'
p2532
aS'HS'
p2533
aS'8149'
p2534
aS'16569'
p2535
aa(lp2536
S'NIT Agartala'
p2537
aS'Mechanical Eng.(4 yrs; BTech)'
p2538
aS'OS'
p2539
aS'15545'
p2540
aS'28256'
p2541
aa(lp2542
S'NIT Rourkela'
p2543
aS'Civil Eng.& M.Tech in Transportation Eng.(5 yrs; B|MTech(Dual))'
p2544
aS'HS'
p2545
aS'22310'
p2546
aS'29558'
p2547
aa(lp2548
S'NIT Warangal'
p2549
aS'Mechanical Eng.(4 yrs; BTech)'
p2550
aS'OS'
p2551
aS'592'
p2552
aS'4539'
p2553
aa(lp2554
S'NIT Arunachal Pradesh'
p2555
aS'Chemical Eng.(4 yrs; BTech)'
p2556
aS'HS'
p2557
aS'210632'
p2558
aS'215470'
p2559
aa(lp2560
S'NIT Srinagar'
p2561
aS'Chemical Eng.(4 yrs; BTech)'
p2562
aS'OS'
p2563
aS'29612'
p2564
aS'38837'
p2565
aa(lp2566
S'Motilal Nehru NIT Allahabad'
p2567
aS'Electronics & Communication Eng.(4 yrs; BTech)'
p2568
aS'HS'
p2569
aS'3955'
p2570
aS'7659'
p2571
aa(lp2572
S'NIT Silchar'
p2573
aS'Electronics & Instrumentation Eng.(4 yrs; BTech)'
p2574
aS'OS'
p2575
aS'24126'
p2576
aS'30502'
p2577
aa(lp2578
S'NIT Calicut'
p2579
aS'Civil Eng.(4 yrs; BTech)'
p2580
aS'OS'
p2581
aS'9019'
p2582
aS'16260'
p2583
aa(lp2584
S'NIT Patna'
p2585
aS'Physics (5 yrs; Integrated Master of Science)'
p2586
aS'HS'
p2587
aS'40137'
p2588
aS'49089'
p2589
aa(lp2590
S'Maulana Azad NIT Bhopal'
p2591
aS'Electrical Eng.(4 yrs; BTech)'
p2592
aS'HS'
p2593
aS'9726'
p2594
aS'17730'
p2595
aa(lp2596
S'Visvesvaraya NIT Nagpur'
p2597
aS'Civil Eng.(4 yrs; BTech)'
p2598
aS'OS'
p2599
aS'9049'
p2600
aS'15172'
p2601
aa(lp2602
S'NIT Warangal'
p2603
aS'Computer Science & Eng.(4 yrs; BTech)'
p2604
aS'OS'
p2605
aS'274'
p2606
aS'1318'
p2607
aa(lp2608
S'NIT Hamirpur'
p2609
aS'Architecture (5 yrs; BA)'
p2610
aS'OS'
p2611
aS'1670'
p2612
aS'3490'
p2613
aa(lp2614
S'NIT Hamirpur'
p2615
aS'Electronics & Communication Eng.(5 yrs; B|MTech(Dual))'
p2616
aS'HS'
p2617
aS'55822'
p2618
aS'65177'
p2619
aa(lp2620
S'NIT Mizoram'
p2621
aS'Computer Science & Eng.(4 yrs; BTech)'
p2622
aS'HS'
p2623
aS'336294'
p2624
aS'1052677'
p2625
aa(lp2626
S'NIT Rourkela'
p2627
aS'Life Science (5 yrs; Integrated Master of Science)'
p2628
aS'OS'
p2629
aS'28801'
p2630
aS'51624'
p2631
aa(lp2632
S'Sardar Vallabhbhai NIT Surat'
p2633
aS'Chemistry (5 yrs; Integrated Master of Science)'
p2634
aS'HS'
p2635
aS'49244'
p2636
aS'55666'
p2637
aa(lp2638
S'NIT Warangal'
p2639
aS'Civil Eng.(4 yrs; BTech)'
p2640
aS'AP'
p2641
aS'9946'
p2642
aS'10455'
p2643
aa(lp2644
S'NIT Tiruchirappalli'
p2645
aS'Mechanical Eng.(4 yrs; BTech)'
p2646
aS'HS'
p2647
aS'1580'
p2648
aS'8986'
p2649
aa(lp2650
S'NIT Manipur'
p2651
aS'Electronics & Communication Eng.(4 yrs; BTech)'
p2652
aS'HS'
p2653
aS'264724'
p2654
aS'413275'
p2655
aa(lp2656
S'NIT Raipur'
p2657
aS'Chemical Eng.(4 yrs; BTech)'
p2658
aS'HS'
p2659
aS'42002'
p2660
aS'57552'
p2661
aa(lp2662
S'Sardar Vallabhbhai NIT Surat'
p2663
aS'Computer Eng.(4 yrs; BTech)'
p2664
aS'HS'
p2665
aS'763'
p2666
aS'5844'
p2667
aa(lp2668
S'NIT Hamirpur'
p2669
aS'Computer Science & Eng.(5 yrs; B|MTech(Dual))'
p2670
aS'HS'
p2671
aS'26422'
p2672
aS'53917'
p2673
aa(lp2674
S'NIT Calicut'
p2675
aS'Eng.Physics (4 yrs; BTech)'
p2676
aS'HS'
p2677
aS'8624'
p2678
aS'17753'
p2679
aa(lp2680
S'NIT Rourkela'
p2681
aS'Ceramic Eng.& M.Tech Industrial Ceramic (5 yrs; B|MTech(Dual))'
p2682
aS'HS'
p2683
aS'38295'
p2684
aS'42045'
p2685
aa(lp2686
S'NIT Warangal'
p2687
aS'Chemical Eng.(4 yrs; BTech)'
p2688
aS'OS'
p2689
aS'5832'
p2690
aS'12482'
p2691
aa(lp2692
S'Motilal Nehru NIT Allahabad'
p2693
aS'Information Technology (4 yrs; BTech)'
p2694
aS'OS'
p2695
aS'3089'
p2696
aS'5195'
p2697
aa(lp2698
S'NIT Rourkela'
p2699
aS'Metallurgical & Materials Eng.(5 yrs; B|MTech(Dual))'
p2700
aS'OS'
p2701
aS'28011'
p2702
aS'31087'
p2703
aa(lp2704
S'NIT Patna'
p2705
aS'Mathematics (5 yrs; Integrated Master of Science)'
p2706
aS'OS'
p2707
aS'35303'
p2708
aS'39026'
p2709
aa(lp2710
S'Motilal Nehru NIT Allahabad'
p2711
aS'Chemical Eng.(4 yrs; BTech)'
p2712
aS'OS'
p2713
aS'8348'
p2714
aS'15835'
p2715
aa(lp2716
S'NIT Calicut'
p2717
aS'Electronics & Communication Eng.(4 yrs; BTech)'
p2718
aS'OS'
p2719
aS'3420'
p2720
aS'5574'
p2721
aa(lp2722
S'NIT Rourkela'
p2723
aS'Computer Science & Eng.& M.Tech Computer Science (5 yrs; B|MTech(Dual))'
p2724
aS'OS'
p2725
aS'8173'
p2726
aS'8416'
p2727
aa(lp2728
S'NIT Sikkim'
p2729
aS'Bio Technology (4 yrs; BTech)'
p2730
aS'HS'
p2731
aS'743681'
p2732
aS'743681'
p2733
aa(lp2734
S'NIT Jamshedpur'
p2735
aS'Electrical & Electronics Eng.(4 yrs; BTech)'
p2736
aS'OS'
p2737
aS'8444'
p2738
aS'16433'
p2739
aa(lp2740
S'NIT Hamirpur'
p2741
aS'Architecture (5 yrs; BA)'
p2742
aS'HS'
p2743
aS'2633'
p2744
aS'7485'
p2745
aa(lp2746
S'NIT Manipur'
p2747
aS'Mechanical Eng.(4 yrs; BTech)'
p2748
aS'OS'
p2749
aS'29417'
p2750
aS'34152'
p2751
aa(lp2752
S'NIT Raipur'
p2753
aS'Electronics & Telecommunication Eng.(4 yrs; BTech)'
p2754
aS'HS'
p2755
aS'19961'
p2756
aS'45193'
p2757
aa(lp2758
S'NIT Rourkela'
p2759
aS'Civil Eng.& M.Tech in Transportation Eng.(5 yrs; B|MTech(Dual))'
p2760
aS'OS'
p2761
aS'20758'
p2762
aS'21535'
p2763
aa(lp2764
S'NIT Patna'
p2765
aS'Architecture (5 yrs; BA)'
p2766
aS'HS'
p2767
aS'3272'
p2768
aS'5569'
p2769
aa(lp2770
S'NIT Calicut'
p2771
aS'Mechanical Eng.(4 yrs; BTech)'
p2772
aS'HS'
p2773
aS'3685'
p2774
aS'10109'
p2775
aa(lp2776
S'NIT Patna'
p2777
aS'Physics (5 yrs; Integrated Master of Science)'
p2778
aS'OS'
p2779
aS'31980'
p2780
aS'37880'
p2781
aa(lp2782
S'Maulana Azad NIT Bhopal'
p2783
aS'Electrical Eng.(4 yrs; BTech)'
p2784
aS'OS'
p2785
aS'9075'
p2786
aS'12722'
p2787
aa(lp2788
S'NIT Calicut'
p2789
aS'Civil Eng.(4 yrs; BTech)'
p2790
aS'HS'
p2791
aS'6047'
p2792
aS'20165'
p2793
aa(lp2794
S'NIT Rourkela'
p2795
aS'Mechanical Eng.& M.Tech Mechatronics & Automation (5 yrs; B|MTech(Dual))'
p2796
aS'HS'
p2797
aS'8376'
p2798
aS'14469'
p2799
aa(lp2800
S'NIT Tiruchirappalli'
p2801
aS'Civil Eng.(4 yrs; BTech)'
p2802
aS'HS'
p2803
aS'8804'
p2804
aS'21015'
p2805
aa(lp2806
S'NIT Sikkim'
p2807
aS'Civil Eng.(4 yrs; BTech)'
p2808
aS'OS'
p2809
aS'21728'
p2810
aS'34860'
p2811
aa(lp2812
S'NIT andhra Pradesh'
p2813
aS'Civil Eng.(4 yrs; BTech)'
p2814
aS'OS'
p2815
aS'15602'
p2816
aS'27472'
p2817
aa(lp2818
S'Malaviya NIT Jaipur'
p2819
aS'Civil Eng.(4 yrs; BTech)'
p2820
aS'OS'
p2821
aS'11288'
p2822
aS'16713'
p2823
aa(lp2824
S'NIT Rourkela'
p2825
aS'Bio Medical Eng.(4 yrs; BTech)'
p2826
aS'HS'
p2827
aS'34674'
p2828
aS'44548'
p2829
aa(lp2830
S'NIT Warangal'
p2831
aS'Computer Science & Eng.(4 yrs; BTech)'
p2832
aS'AP'
p2833
aS'1366'
p2834
aS'1458'
p2835
aa(lp2836
S'Sardar Vallabhbhai NIT Surat'
p2837
aS'Chemistry (5 yrs; Integrated Master of Science)'
p2838
aS'OS'
p2839
aS'22058'
p2840
aS'36809'
p2841
aa(lp2842
S'NIT andhra Pradesh'
p2843
aS'Chemical Eng.(4 yrs; BTech)'
p2844
aS'HS'
p2845
aS'20535'
p2846
aS'28424'
p2847
aa(lp2848
S'NIT Agartala'
p2849
aS'Civil Eng.(4 yrs; BTech)'
p2850
aS'HS'
p2851
aS'31435'
p2852
aS'185896'
p2853
aa(lp2854
S'NIT Rourkela'
p2855
aS'Architecture (5 yrs; BA)'
p2856
aS'HS'
p2857
aS'2327'
p2858
aS'2903'
p2859
aa(lp2860
S'NIT Patna'
p2861
aS'Mechanical Eng.(4 yrs; BTech)'
p2862
aS'HS'
p2863
aS'15670'
p2864
aS'23115'
p2865
aa(lp2866
S'NIT Durgapur'
p2867
aS'Information Technology (4 yrs; BTech)'
p2868
aS'OS'
p2869
aS'8677'
p2870
aS'12998'
p2871
aa(lp2872
S'NIT Hamirpur'
p2873
aS'Computer Science & Eng.(5 yrs; B|MTech(Dual))'
p2874
aS'OS'
p2875
aS'7590'
p2876
aS'15552'
p2877
aa(lp2878
S'NIT Arunachal Pradesh'
p2879
aS'Electronics & Communication Eng.(4 yrs; BTech)'
p2880
aS'HS'
p2881
aS'115971'
p2882
aS'124564'
p2883
aa(lp2884
S'NIT Raipur'
p2885
aS'Chemical Eng.(4 yrs; BTech)'
p2886
aS'OS'
p2887
aS'16262'
p2888
aS'26567'
p2889
aa(lp2890
S'NIT Warangal'
p2891
aS'Civil Eng.(4 yrs; BTech)'
p2892
aS'OS'
p2893
aS'3062'
p2894
aS'9023'
p2895
aa(lp2896
S'NIT Warangal'
p2897
aS'Chemical Eng.(4 yrs; BTech)'
p2898
aS'AP'
p2899
aS'12526'
p2900
aS'14588'
p2901
aa(lp2902
S'NIT Manipur'
p2903
aS'Electronics & Communication Eng.(4 yrs; BTech)'
p2904
aS'OS'
p2905
aS'32006'
p2906
aS'34954'
p2907
aa(lp2908
S'NIT Hamirpur'
p2909
aS'Civil Eng.(4 yrs; BTech)'
p2910
aS'HS'
p2911
aS'22174'
p2912
aS'57210'
p2913
aa(lp2914
S'NIT Rourkela'
p2915
aS'Ceramic Eng.& M.Tech Industrial Ceramic (5 yrs; B|MTech(Dual))'
p2916
aS'OS'
p2917
aS'31587'
p2918
aS'35391'
p2919
aa(lp2920
S'NIT Srinagar'
p2921
aS'Information Technology (4 yrs; BTech)'
p2922
aS'OS'
p2923
aS'22054'
p2924
aS'31600'
p2925
aa(lp2926
S'NIT Patna'
p2927
aS'Mathematics (5 yrs; Integrated Master of Science)'
p2928
aS'HS'
p2929
aS'35898'
p2930
aS'48915'
p2931
aa(lp2932
S'Sardar Vallabhbhai NIT Surat'
p2933
aS'Physics (5 yrs; Integrated Master of Science)'
p2934
aS'HS'
p2935
aS'15962'
p2936
aS'51470'
p2937
aa(lp2938
S'NIT Nagaland'
p2939
aS'Material Science (5 yrs; BSc & Master of Science (Dual))'
p2940
aS'OS'
p2941
aS'42185'
p2942
aS'44085'
p2943
aa(lp2944
S'NIT Arunachal Pradesh'
p2945
aS'Computer Science & Eng.(4 yrs; BTech)'
p2946
aS'OS'
p2947
aS'17668'
p2948
aS'27024'
p2949
aa(lp2950
S'Maulana Azad NIT Bhopal'
p2951
aS'Materials Science & Metallurgical Eng.(4 yrs; BTech)'
p2952
aS'HS'
p2953
aS'19410'
p2954
aS'27275'
p2955
aa(lp2956
S'NIT Jamshedpur'
p2957
aS'Electronics & Communication Eng.(4 yrs; BTech)'
p2958
aS'HS'
p2959
aS'14877'
p2960
aS'20962'
p2961
aa(lp2962
S'NIT Rourkela'
p2963
aS'Mechanical Eng.(4 yrs; BTech)'
p2964
aS'HS'
p2965
aS'5358'
p2966
aS'11866'
p2967
aa(lp2968
S'NIT andhra Pradesh'
p2969
aS'Civil Eng.(4 yrs; BTech)'
p2970
aS'HS'
p2971
aS'17350'
p2972
aS'27536'
p2973
aa(lp2974
S'NIT Sikkim'
p2975
aS'Civil Eng.(4 yrs; BTech)'
p2976
aS'HS'
p2977
aS'169255'
p2978
aS'979418'
p2979
aa(lp2980
S'NIT Tiruchirappalli'
p2981
aS'Production Eng.(4 yrs; BTech)'
p2982
aS'HS'
p2983
aS'9202'
p2984
aS'21222'
p2985
aa(lp2986
S'NIT Mizoram'
p2987
aS'Mechanical Eng.(4 yrs; BTech)'
p2988
aS'HS'
p2989
aS'544247'
p2990
aS'864927'
p2991
aa(lp2992
S'NIT Sikkim'
p2993
aS'Electrical & Electronics Eng.(4 yrs; BTech)'
p2994
aS'OS'
p2995
aS'24571'
p2996
aS'34111'
p2997
aa(lp2998
S'NIT Agartala'
p2999
aS'Bio Eng.(4 yrs; BTech)'
p3000
aS'HS'
p3001
aS'121912'
p3002
aS'253455'
p3003
aa(lp3004
S'NIT Arunachal Pradesh'
p3005
aS'Bio Technology (4 yrs; BTech)'
p3006
aS'HS'
p3007
aS'70162'
p3008
aS'211270'
p3009
aa(lp3010
S'NIT andhra Pradesh'
p3011
aS'Bio Technology (4 yrs; BTech)'
p3012
aS'OS'
p3013
aS'30162'
p3014
aS'37051'
p3015
aa(lp3016
S'NIT Puducherry'
p3017
aS'Electronics & Communication Eng.(4 yrs; BTech)'
p3018
aS'HS'
p3019
aS'37508'
p3020
aS'139003'
p3021
aa(lp3022
S'Maulana Azad NIT Bhopal'
p3023
aS'Chemical Eng.(4 yrs; BTech)'
p3024
aS'HS'
p3025
aS'17923'
p3026
aS'21470'
p3027
aa(lp3028
S'NIT Calicut'
p3029
aS'Computer Science & Eng.(4 yrs; BTech)'
p3030
aS'OS'
p3031
aS'1225'
p3032
aS'3571'
p3033
aa(lp3034
S'NIT Delhi'
p3035
aS'Electronics & Communication Eng.(4 yrs; BTech)'
p3036
aS'HS'
p3037
aS'11995'
p3038
aS'17429'
p3039
aa(lp3040
S'Motilal Nehru NIT Allahabad'
p3041
aS'Production & Industrial Eng.(4 yrs; BTech)'
p3042
aS'OS'
p3043
aS'13317'
p3044
aS'21313'
p3045
aa(lp3046
S'NIT Rourkela'
p3047
aS'Electronics & Instrumentation Eng.(4 yrs; BTech)'
p3048
aS'OS'
p3049
aS'8953'
p3050
aS'12709'
p3051
aa(lp3052
S'NIT Warangal'
p3053
aS'Bio Technology (4 yrs; BTech)'
p3054
aS'HS'
p3055
aS'14338'
p3056
aS'23013'
p3057
aa(lp3058
S'Sardar Vallabhbhai NIT Surat'
p3059
aS'Electrical Eng.(4 yrs; BTech)'
p3060
aS'OS'
p3061
aS'7962'
p3062
aS'11217'
p3063
aa(lp3064
S'NIT Patna'
p3065
aS'Electrical Eng.(4 yrs; BTech)'
p3066
aS'HS'
p3067
aS'17532'
p3068
aS'25009'
p3069
aa(lp3070
S'NIT Rourkela'
p3071
aS'Electrical Eng.& M.Tech Power Electronics & Drives (5 yrs; B|MTech(Dual))'
p3072
aS'OS'
p3073
aS'12811'
p3074
aS'14927'
p3075
aa(lp3076
S'NIT Raipur'
p3077
aS'Mechanical Eng.(4 yrs; BTech)'
p3078
aS'HS'
p3079
aS'14628'
p3080
aS'38375'
p3081
aa(lp3082
S'Malaviya NIT Jaipur'
p3083
aS'Chemical Eng.(4 yrs; BTech)'
p3084
aS'HS'
p3085
aS'9006'
p3086
aS'15616'
p3087
aa(lp3088
S'NIT Patna'
p3089
aS'Chemistry (5 yrs; Integrated Master of Science)'
p3090
aS'HS'
p3091
aS'45641'
p3092
aS'51535'
p3093
aa(lp3094
S'NIT Silchar'
p3095
aS'Electronics & Communication Eng.(4 yrs; BTech)'
p3096
aS'OS'
p3097
aS'16560'
p3098
aS'23980'
p3099
aa(lp3100
S'NIT Karnataka'
p3101
aS'Information Technology (4 yrs; BTech)'
p3102
aS'HS'
p3103
aS'3186'
p3104
aS'6953'
p3105
aa(lp3106
S'NIT Agartala'
p3107
aS'Physics (5 yrs; BSc & Master of Science (Dual))'
p3108
aS'OS'
p3109
aS'38383'
p3110
aS'39379'
p3111
aa(lp3112
S'NIT Warangal'
p3113
aS'Civil Eng.(4 yrs; BTech)'
p3114
aS'HS'
p3115
aS'4015'
p3116
aS'9123'
p3117
aa(lp3118
S'NIT Raipur'
p3119
aS'Information Technology (4 yrs; BTech)'
p3120
aS'HS'
p3121
aS'29725'
p3122
aS'47482'
p3123
aa(lp3124
S'NIT Arunachal Pradesh'
p3125
aS'Civil Eng.(4 yrs; BTech)'
p3126
aS'HS'
p3127
aS'106750'
p3128
aS'201449'
p3129
aa(lp3130
S'NIT Sikkim'
p3131
aS'Bio Technology (4 yrs; BTech)'
p3132
aS'OS'
p3133
aS'33728'
p3134
aS'42665'
p3135
aa(lp3136
S'NIT andhra Pradesh'
p3137
aS'Electronics & Communication Eng.(4 yrs; BTech)'
p3138
aS'HS'
p3139
aS'5949'
p3140
aS'14066'
p3141
aa(lp3142
S'Sardar Vallabhbhai NIT Surat'
p3143
aS'Mechanical Eng.(4 yrs; BTech)'
p3144
aS'HS'
p3145
aS'4118'
p3146
aS'12200'
p3147
aa(lp3148
S'NIT Karnataka'
p3149
aS'Mining Eng.(4 yrs; BTech)'
p3150
aS'HS'
p3151
aS'27320'
p3152
aS'32588'
p3153
aasS'name'
p3154
S'b6'
p3155
sb.(i__main__
build
p0
(dp1
S'cutoff'
p2
(lp3
(lp4
S'IIT Madras'
p5
aS'Aerospace Eng. (4 yrs; BTech)'
p6
aS'AI'
p7
aS'1884'
p8
aS'3242'
p9
aa(lp10
S'IIT Madras'
p11
aS'Civil Eng. (5 yrs; [B|M]Tech(Dual))'
p12
aS'AI'
p13
aS'3604'
p14
aS'4573'
p15
aa(lp16
S'IIT Delhi'
p17
aS'Mechanical Eng. (4 yrs; BTech)'
p18
aS'AI'
p19
aS'247'
p20
aS'907'
p21
aa(lp22
S'IIT Roorkee'
p23
aS'Electrical Eng. (4 yrs; BTech)'
p24
aS'AI'
p25
aS'1108'
p26
aS'1833'
p27
aa(lp28
S'IIT Gandhinagar'
p29
aS'Electrical Eng. (4 yrs; BTech)'
p30
aS'AI'
p31
aS'1645'
p32
aS'2548'
p33
aa(lp34
S'IIT Roorkee'
p35
aS'Production & Industrial Eng. (4 yrs; BTech)'
p36
aS'AI'
p37
aS'3502'
p38
aS'4353'
p39
aa(lp40
S'IIT Kanpur'
p41
aS'Earth Sciences (4 yrs; Bachelor of Science)'
p42
aS'AI'
p43
aS'5900'
p44
aS'7469'
p45
aa(lp46
S'IIT Kanpur'
p47
aS'Mathematics & Scientific Computing (4 yrs; Bachelor of Science)'
p48
aS'AI'
p49
aS'528'
p50
aS'976'
p51
aa(lp52
S'IIT (BHU) Varanasi'
p53
aS'Computer Science & Eng. (4 yrs; BTech)'
p54
aS'AI'
p55
aS'500'
p56
aS'772'
p57
aa(lp58
S'IIT Roorkee'
p59
aS'Computer Science & Eng. (4 yrs; BTech)'
p60
aS'AI'
p61
aS'294'
p62
aS'482'
p63
aa(lp64
S'IIT Jodhpur'
p65
aS'Electrical Eng. (4 yrs; BTech)'
p66
aS'AI'
p67
aS'3693'
p68
aS'5615'
p69
aa(lp70
S'IIT Roorkee'
p71
aS'Bio Technology (4 yrs; BTech)'
p72
aS'AI'
p73
aS'5417'
p74
aS'6255'
p75
aa(lp76
S'IIT Bombay'
p77
aS'Electrical Eng. with M.Tech. in Microelectronics (5 yrs; [B|M]Tech(Dual))'
p78
aS'AI'
p79
aS'228'
p80
aS'514'
p81
aa(lp82
S'IIT Gandhinagar'
p83
aS'Chemical Eng. (4 yrs; BTech)'
p84
aS'AI'
p85
aS'3960'
p86
aS'5473'
p87
aa(lp88
S'IIT Madras'
p89
aS'Mechanical Eng. (5 yrs; [B|M]Tech(Dual))'
p90
aS'AI'
p91
aS'1293'
p92
aS'2194'
p93
aa(lp94
S'IIT Bombay'
p95
aS'Eng. Physics (4 yrs; BTech)'
p96
aS'AI'
p97
aS'6'
p98
aS'1041'
p99
aa(lp100
S'IIT Kharagpur'
p101
aS'Mechanical Eng. with M.Tech. (5 yrs; [B|M]Tech(Dual))'
p102
aS'AI'
p103
aS'1561'
p104
aS'2299'
p105
aa(lp106
S'IIT Jammu'
p107
aS'Electrical Eng. (4 yrs; BTech)'
p108
aS'AI'
p109
aS'6821'
p110
aS'8389'
p111
aa(lp112
S'IIT Jammu'
p113
aS'Mechanical Eng. (4 yrs; BTech)'
p114
aS'AI'
p115
aS'6683'
p116
aS'8624'
p117
aa(lp118
S'IIT Kharagpur'
p119
aS'Computer Science & Eng. (4 yrs; BTech)'
p120
aS'AI'
p121
aS'181'
p122
aS'286'
p123
aa(lp124
S'IIT Bombay'
p125
aS'Metallurgical Eng. & Materials Science (4 yrs; BTech)'
p126
aS'AI'
p127
aS'1657'
p128
aS'2971'
p129
aa(lp130
S'IIT Bombay'
p131
aS'Chemistry (4 yrs; Bachelor of Science)'
p132
aS'AI'
p133
aS'3323'
p134
aS'4880'
p135
aa(lp136
S'IIT (BHU) Varanasi'
p137
aS'Biochemical Eng. with M.Tech. in Biochemical Eng. & Biotechnology (5 yrs; [B|M]Tech(Dual))'
p138
aS'AI'
p139
aS'7282'
p140
aS'8847'
p141
aa(lp142
S'IIT Bhubaneswar'
p143
aS'Civil Eng. & M. Tech. in Structural Eng. (5 yrs; [B|M]Tech(Dual))'
p144
aS'AI'
p145
aS'5408'
p146
aS'7295'
p147
aa(lp148
S'IIT Kharagpur'
p149
aS'Ocean Eng. & Naval Architecture (5 yrs; [B|M]Tech(Dual))'
p150
aS'AI'
p151
aS'5586'
p152
aS'6355'
p153
aa(lp154
S'IIT Delhi'
p155
aS'Electrical Eng. (4 yrs; BTech)'
p156
aS'AI'
p157
aS'80'
p158
aS'403'
p159
aa(lp160
S'IIT Kharagpur'
p161
aS'Industrial & Systems Eng. with M.Tech. in Industrial & Systems Eng. & Management (5 yrs; [B|M]Tech(Dual))'
p162
aS'AI'
p163
aS'3492'
p164
aS'4563'
p165
aa(lp166
S'IIT Indore'
p167
aS'Metallurgical Eng. & Materials Science (4 yrs; BTech)'
p168
aS'AI'
p169
aS'6082'
p170
aS'7732'
p171
aa(lp172
S'IIT Bombay'
p173
aS'Eng. Physics & M.Tech. with specialization in Nano Science (5 yrs; [B|M]Tech(Dual))'
p174
aS'AI'
p175
aS'1092'
p176
aS'1843'
p177
aa(lp178
S'IIT Delhi'
p179
aS'Mathematics & Computing (5 yrs; [B|M]Tech(Dual))'
p180
aS'AI'
p181
aS'390'
p182
aS'477'
p183
aa(lp184
S'IIT Roorkee'
p185
aS'Mechanical Eng. (4 yrs; BTech)'
p186
aS'AI'
p187
aS'1565'
p188
aS'2426'
p189
aa(lp190
S'IIT M&i'
p191
aS'Computer Science & Eng. (4 yrs; BTech)'
p192
aS'AI'
p193
aS'1701'
p194
aS'2450'
p195
aa(lp196
S'IIT Kharagpur'
p197
aS'Mining Eng. (5 yrs; [B|M]Tech(Dual))'
p198
aS'AI'
p199
aS'5606'
p200
aS'6220'
p201
aa(lp202
S'ISM Dhanbad'
p203
aS'Computer Science & Eng. (5 yrs; [B|M]Tech(Dual))'
p204
aS'AI'
p205
aS'3526'
p206
aS'3671'
p207
aa(lp208
S'IIT Kanpur'
p209
aS'Economics (4 yrs; Bachelor of Science)'
p210
aS'AI'
p211
aS'1529'
p212
aS'2767'
p213
aa(lp214
S'IIT Jodhpur'
p215
aS'Mechanical Eng. (4 yrs; BTech)'
p216
aS'AI'
p217
aS'4876'
p218
aS'6006'
p219
aa(lp220
S'IIT Kanpur'
p221
aS'Aerospace Eng. (4 yrs; BTech)'
p222
aS'AI'
p223
aS'1501'
p224
aS'2988'
p225
aa(lp226
S'IIT Bhubaneswar'
p227
aS'Civil Eng. (4 yrs; BTech)'
p228
aS'AI'
p229
aS'5456'
p230
aS'7066'
p231
aa(lp232
S'IIT Hyderabad'
p233
aS'Eng. Science (4 yrs; BTech)'
p234
aS'AI'
p235
aS'2674'
p236
aS'4603'
p237
aa(lp238
S'IIT Kharagpur'
p239
aS'Ocean Eng. & Naval Architecture (4 yrs; BTech)'
p240
aS'AI'
p241
aS'3609'
p242
aS'5538'
p243
aa(lp244
S'ISM Dhanbad'
p245
aS'Environmental Eng. (4 yrs; BTech)'
p246
aS'AI'
p247
aS'7763'
p248
aS'9484'
p249
aa(lp250
S'IIT Kharagpur'
p251
aS'Computer Science & Eng. (5 yrs; [B|M]Tech(Dual))'
p252
aS'AI'
p253
aS'284'
p254
aS'389'
p255
aa(lp256
S'IIT Bombay'
p257
aS'Computer Science & Eng. (4 yrs; BTech)'
p258
aS'AI'
p259
aS'1'
p260
aS'60'
p261
aa(lp262
S'IIT Bombay'
p263
aS'Aerospace Eng. (4 yrs; BTech)'
p264
aS'AI'
p265
aS'838'
p266
aS'1841'
p267
aa(lp268
S'IIT (BHU) Varanasi'
p269
aS'Metallurgical Eng. (5 yrs; [B|M]Tech(Dual))'
p270
aS'AI'
p271
aS'5998'
p272
aS'7921'
p273
aa(lp274
S'IIT Guwahati'
p275
aS'Bio Technology (4 yrs; BTech)'
p276
aS'AI'
p277
aS'5394'
p278
aS'8000'
p279
aa(lp280
S'IIT (BHU) Varanasi'
p281
aS'Civil Eng. with M.Tech. in Structural Eng. (5 yrs; [B|M]Tech(Dual))'
p282
aS'AI'
p283
aS'4996'
p284
aS'6238'
p285
aa(lp286
S'IIT Dharwad'
p287
aS'Mechanical Eng. (4 yrs; BTech)'
p288
aS'AI'
p289
aS'6421'
p290
aS'8478'
p291
aa(lp292
S'IIT Patna'
p293
aS'Computer Science & Eng. (4 yrs; BTech)'
p294
aS'AI'
p295
aS'1541'
p296
aS'2888'
p297
aa(lp298
S'IIT Ropar'
p299
aS'Mechanical Eng. (4 yrs; BTech)'
p300
aS'AI'
p301
aS'2995'
p302
aS'5010'
p303
aa(lp304
S'IIT Kharagpur'
p305
aS'Applied Geology (5 yrs; Integrated Master of Science)'
p306
aS'AI'
p307
aS'6645'
p308
aS'8658'
p309
aa(lp310
S'IIT Bhubaneswar'
p311
aS'Civil Eng. & M.Tech in Transportation Eng. (5 yrs; [B|M]Tech(Dual))'
p312
aS'AI'
p313
aS'6078'
p314
aS'8142'
p315
aa(lp316
S'IIT Kharagpur'
p317
aS'Manufacturing Science & Eng. (4 yrs; BTech)'
p318
aS'AI'
p319
aS'2420'
p320
aS'3759'
p321
aa(lp322
S'IIT Kharagpur'
p323
aS'Electronics & Electrical Communication Eng. with M.Tech (5 yrs; [B|M]Tech(Dual))'
p324
aS'AI'
p325
aS'915'
p326
aS'1320'
p327
aa(lp328
S'IIT Delhi'
p329
aS'Electrical Eng. (Power & Automation) (4 yrs; BTech)'
p330
aS'AI'
p331
aS'549'
p332
aS'999'
p333
aa(lp334
S'IIT Gandhinagar'
p335
aS'Materials Science & Eng. (4 yrs; BTech)'
p336
aS'AI'
p337
aS'5248'
p338
aS'6869'
p339
aa(lp340
S'IIT Patna'
p341
aS'Electrical Eng. (4 yrs; BTech)'
p342
aS'AI'
p343
aS'3895'
p344
aS'5518'
p345
aa(lp346
S'ISM Dhanbad'
p347
aS'Electronics & Communication Eng. (4 yrs; BTech)'
p348
aS'AI'
p349
aS'3852'
p350
aS'5644'
p351
aa(lp352
S'IIT Roorkee'
p353
aS'Geophysical Technology (5 yrs; Integrated Master of Technology)'
p354
aS'AI'
p355
aS'4328'
p356
aS'6865'
p357
aa(lp358
S'IIT Delhi'
p359
aS'Chemical Eng. (4 yrs; BTech)'
p360
aS'AI'
p361
aS'980'
p362
aS'1704'
p363
aa(lp364
S'IIT Kharagpur'
p365
aS'Electrical Eng. with M.Tech. (5 yrs; [B|M]Tech(Dual))'
p366
aS'AI'
p367
aS'1288'
p368
aS'1556'
p369
aa(lp370
S'IIT Indore'
p371
aS'Computer Science & Eng. (4 yrs; BTech)'
p372
aS'AI'
p373
aS'933'
p374
aS'1411'
p375
aa(lp376
S'IIT Hyderabad'
p377
aS'Computer Science & Eng. (4 yrs; BTech)'
p378
aS'AI'
p379
aS'418'
p380
aS'879'
p381
aa(lp382
S'IIT Hyderabad'
p383
aS'Eng. Physics (4 yrs; BTech)'
p384
aS'AI'
p385
aS'4255'
p386
aS'4836'
p387
aa(lp388
S'IIT Bhubaneswar'
p389
aS'Electrical Eng. (4 yrs; BTech)'
p390
aS'AI'
p391
aS'3124'
p392
aS'5059'
p393
aa(lp394
S'IIT Guwahati'
p395
aS'Mathematics & Computing (4 yrs; BTech)'
p396
aS'AI'
p397
aS'726'
p398
aS'1251'
p399
aa(lp400
S'IIT (BHU) Varanasi'
p401
aS'Electrical Eng. with M.Tech. in Power Electronics (5 yrs; [B|M]Tech(Dual))'
p402
aS'AI'
p403
aS'2648'
p404
aS'3290'
p405
aa(lp406
S'IIT Delhi'
p407
aS'Textile Technology (4 yrs; BTech)'
p408
aS'AI'
p409
aS'2826'
p410
aS'5431'
p411
aa(lp412
S'IIT Bombay'
p413
aS'Metallurgical Eng. & Materials Science with M.Tech. in Metallurgy Eng. (5 yrs; [B|M]Tech(Dual))'
p414
aS'AI'
p415
aS'3113'
p416
aS'3403'
p417
aa(lp418
S'IIT Bhubaneswar'
p419
aS'Mechanical Eng. (4 yrs; BTech)'
p420
aS'AI'
p421
aS'3710'
p422
aS'5716'
p423
aa(lp424
S'IIT Roorkee'
p425
aS'Civil Eng. (4 yrs; BTech)'
p426
aS'AI'
p427
aS'1877'
p428
aS'3917'
p429
aa(lp430
S'IIT Madras'
p431
aS'Metallurgical & Materials Eng. (5 yrs; [B|M]Tech(Dual))'
p432
aS'AI'
p433
aS'4242'
p434
aS'5280'
p435
aa(lp436
S'IIT Bhilai'
p437
aS'Computer Science & Eng. (4 yrs; BTech)'
p438
aS'AI'
p439
aS'3146'
p440
aS'5949'
p441
aa(lp442
S'IIT Delhi'
p443
aS'Computer Science & Eng. (5 yrs; [B|M]Tech(Dual))'
p444
aS'AI'
p445
aS'124'
p446
aS'186'
p447
aa(lp448
S'IIT (BHU) Varanasi'
p449
aS'Materials Science & Technology (5 yrs; [B|M]Tech(Dual))'
p450
aS'AI'
p451
aS'6263'
p452
aS'8275'
p453
aa(lp454
S'IIT Madras'
p455
aS'Chemical Eng. (5 yrs; [B|M]Tech(Dual))'
p456
aS'AI'
p457
aS'2960'
p458
aS'3258'
p459
aa(lp460
S'IIT Roorkee'
p461
aS'Polymer Science & Eng. (4 yrs; BTech)'
p462
aS'AI'
p463
aS'5943'
p464
aS'7531'
p465
aa(lp466
S'IIT Kharagpur'
p467
aS'Mining Safety Eng. (5 yrs; [B|M]Tech(Dual))'
p468
aS'AI'
p469
aS'6430'
p470
aS'7423'
p471
aa(lp472
S'IIT Bhilai'
p473
aS'Electrical Eng. (4 yrs; BTech)'
p474
aS'AI'
p475
aS'6478'
p476
aS'8249'
p477
aa(lp478
S'ISM Dhanbad'
p479
aS'Petroleum Eng. (4 yrs; BTech)'
p480
aS'AI'
p481
aS'5286'
p482
aS'7376'
p483
aa(lp484
S'IIT (BHU) Varanasi'
p485
aS'Eng. Physics (5 yrs; Integrated Master of Technology)'
p486
aS'AI'
p487
aS'5095'
p488
aS'6385'
p489
aa(lp490
S'IIT (BHU) Varanasi'
p491
aS'Mechanical Eng. (4 yrs; BTech)'
p492
aS'AI'
p493
aS'2690'
p494
aS'3800'
p495
aa(lp496
S'IIT Roorkee'
p497
aS'Eng. Physics (4 yrs; BTech)'
p498
aS'AI'
p499
aS'2869'
p500
aS'4345'
p501
aa(lp502
S'IIT (BHU) Varanasi'
p503
aS'BioEng. with M.Tech in Biomedical Technology (5 yrs; [B|M]Tech(Dual))'
p504
aS'AI'
p505
aS'7884'
p506
aS'9137'
p507
aa(lp508
S'IIT Goa'
p509
aS'Computer Science & Eng. (4 yrs; BTech)'
p510
aS'AI'
p511
aS'3003'
p512
aS'5164'
p513
aa(lp514
S'IIT (BHU) Varanasi'
p515
aS'Pharmaceutics (4 yrs; Bachelor of Pharmaceutics)'
p516
aS'AI'
p517
aS'8027'
p518
aS'9805'
p519
aa(lp520
S'IIT Palakkad'
p521
aS'Mechanical Eng. (4 yrs; BTech)'
p522
aS'AI'
p523
aS'5958'
p524
aS'7381'
p525
aa(lp526
S'IIT Delhi'
p527
aS'Chemical Eng. (5 yrs; [B|M]Tech(Dual))'
p528
aS'AI'
p529
aS'1729'
p530
aS'2996'
p531
aa(lp532
S'IIT Jammu'
p533
aS'Computer Science & Eng. (4 yrs; BTech)'
p534
aS'AI'
p535
aS'4743'
p536
aS'6219'
p537
aa(lp538
S'IIT Kanpur'
p539
aS'Electrical Eng. (4 yrs; BTech)'
p540
aS'AI'
p541
aS'248'
p542
aS'798'
p543
aa(lp544
S'ISM Dhanbad'
p545
aS'Mathematics & Computing (5 yrs; Integrated Master of Technology)'
p546
aS'AI'
p547
aS'3643'
p548
aS'4696'
p549
aa(lp550
S'IIT Roorkee'
p551
aS'Metallurgical & Materials Eng. (4 yrs; BTech)'
p552
aS'AI'
p553
aS'4366'
p554
aS'5856'
p555
aa(lp556
S'IIT Ropar'
p557
aS'Civil Eng. (4 yrs; BTech)'
p558
aS'AI'
p559
aS'5382'
p560
aS'7372'
p561
aa(lp562
S'IIT Indore'
p563
aS'Mechanical Eng. (4 yrs; BTech)'
p564
aS'AI'
p565
aS'3432'
p566
aS'4434'
p567
aa(lp568
S'IIT Madras'
p569
aS'Computer Science & Eng. (5 yrs; [B|M]Tech(Dual))'
p570
aS'AI'
p571
aS'214'
p572
aS'278'
p573
aa(lp574
S'ISM Dhanbad'
p575
aS'Civil Eng. (4 yrs; BTech)'
p576
aS'AI'
p577
aS'6274'
p578
aS'7832'
p579
aa(lp580
S'IIT Goa'
p581
aS'Mechanical Eng. (4 yrs; BTech)'
p582
aS'AI'
p583
aS'5594'
p584
aS'7571'
p585
aa(lp586
S'IIT Madras'
p587
aS'Electrical Eng. (4 yrs; BTech)'
p588
aS'AI'
p589
aS'189'
p590
aS'606'
p591
aa(lp592
S'IIT Kharagpur'
p593
aS'Manufacturing Science & Eng. with M.Tech. in Industrial & Systems Eng. & Management (5 yrs; [B|M]Tech(Dual))'
p594
aS'AI'
p595
aS'3847'
p596
aS'4436'
p597
aa(lp598
S'IIT Hyderabad'
p599
aS'Civil Eng. (4 yrs; BTech)'
p600
aS'AI'
p601
aS'3804'
p602
aS'5300'
p603
aa(lp604
S'IIT Indore'
p605
aS'Civil Eng. (4 yrs; BTech)'
p606
aS'AI'
p607
aS'4626'
p608
aS'6561'
p609
aa(lp610
S'IIT Guwahati'
p611
aS'Chemical Eng. (4 yrs; BTech)'
p612
aS'AI'
p613
aS'3184'
p614
aS'4657'
p615
aa(lp616
S'IIT M&i'
p617
aS'Mechanical Eng. (4 yrs; BTech)'
p618
aS'AI'
p619
aS'4670'
p620
aS'6094'
p621
aa(lp622
S'IIT Guwahati'
p623
aS'Eng. Physics (4 yrs; BTech)'
p624
aS'AI'
p625
aS'3214'
p626
aS'5160'
p627
aa(lp628
S'IIT Patna'
p629
aS'Civil Eng. (4 yrs; BTech)'
p630
aS'AI'
p631
aS'5776'
p632
aS'7074'
p633
aa(lp634
S'IIT Kharagpur'
p635
aS'Economics (5 yrs; Integrated Master of Science)'
p636
aS'AI'
p637
aS'2779'
p638
aS'4128'
p639
aa(lp640
S'IIT Roorkee'
p641
aS'Architecture (5 yrs; Bachelor of Architecture)'
p642
aS'AI'
p643
aS'4778'
p644
aS'10422'
p645
aa(lp646
S'IIT Delhi'
p647
aS'Biotechnology & Biochemical Eng. (4 yrs; BTech)'
p648
aS'AI'
p649
aS'2609'
p650
aS'3718'
p651
aa(lp652
S'IIT Bombay'
p653
aS'Mechanical Eng. & M.Tech. in Computer Integrated Manufacturing (5 yrs; [B|M]Tech(Dual))'
p654
aS'AI'
p655
aS'803'
p656
aS'901'
p657
aa(lp658
S'IIT Ropar'
p659
aS'Computer Science & Eng. (4 yrs; BTech)'
p660
aS'AI'
p661
aS'898'
p662
aS'1684'
p663
aa(lp664
S'IIT Hyderabad'
p665
aS'Mechanical Eng. (4 yrs; BTech)'
p666
aS'AI'
p667
aS'1430'
p668
aS'3401'
p669
aa(lp670
S'ISM Dhanbad'
p671
aS'Mining Machinery Eng. (4 yrs; BTech)'
p672
aS'AI'
p673
aS'7422'
p674
aS'9111'
p675
aa(lp676
S'IIT (BHU) Varanasi'
p677
aS'Electrical Eng. (4 yrs; BTech)'
p678
aS'AI'
p679
aS'2294'
p680
aS'2814'
p681
aa(lp682
S'IIT (BHU) Varanasi'
p683
aS'Civil Eng. (4 yrs; BTech)'
p684
aS'AI'
p685
aS'3629'
p686
aS'5185'
p687
aa(lp688
S'IIT Madras'
p689
aS'Aerospace Eng. (5 yrs; [B|M]Tech(Dual))'
p690
aS'AI'
p691
aS'2412'
p692
aS'3251'
p693
aa(lp694
S'IIT Guwahati'
p695
aS'Chemical Science & Technology (4 yrs; BTech)'
p696
aS'AI'
p697
aS'1890'
p698
aS'6395'
p699
aa(lp700
S'IIT Bombay'
p701
aS'Energy Eng. with M.Tech. in Energy Systems Eng. (5 yrs; [B|M]Tech(Dual))'
p702
aS'AI'
p703
aS'1374'
p704
aS'2250'
p705
aa(lp706
S'IIT Bhubaneswar'
p707
aS'Electronics & Communication Eng. (4 yrs; BTech)'
p708
aS'AI'
p709
aS'2529'
p710
aS'4432'
p711
aa(lp712
S'IIT Kharagpur'
p713
aS'Biotechnology & Biochemical Eng. (4 yrs; BTech)'
p714
aS'AI'
p715
aS'4183'
p716
aS'5437'
p717
aa(lp718
S'IIT Guwahati'
p719
aS'Mechanical Eng. (4 yrs; BTech)'
p720
aS'AI'
p721
aS'2249'
p722
aS'3052'
p723
aa(lp724
S'IIT Madras'
p725
aS'Eng. Physics (4 yrs; BTech)'
p726
aS'AI'
p727
aS'1380'
p728
aS'2274'
p729
aa(lp730
S'IIT Kharagpur'
p731
aS'Biotechnology & Biochemical Eng. (5 yrs; [B|M]Tech(Dual))'
p732
aS'AI'
p733
aS'5556'
p734
aS'6904'
p735
aa(lp736
S'IIT Bhubaneswar'
p737
aS'Mechanical Eng. & M. Tech. in Thermal Science & Eng. (5 yrs; [B|M]Tech(Dual))'
p738
aS'AI'
p739
aS'5680'
p740
aS'6554'
p741
aa(lp742
S'IIT Palakkad'
p743
aS'Civil Eng. (4 yrs; BTech)'
p744
aS'AI'
p745
aS'7449'
p746
aS'8648'
p747
aa(lp748
S'IIT Roorkee'
p749
aS'Geological Technology (5 yrs; Integrated Master of Technology)'
p750
aS'AI'
p751
aS'6185'
p752
aS'7825'
p753
aa(lp754
S'IIT Bombay'
p755
aS'Metallurgical Eng. & Materials Science with M.Tech. in Ceramics & Composites (5 yrs; [B|M]Tech(Dual))'
p756
aS'AI'
p757
aS'3001'
p758
aS'3450'
p759
aa(lp760
S'IIT Indore'
p761
aS'Electrical Eng. (4 yrs; BTech)'
p762
aS'AI'
p763
aS'1730'
p764
aS'3577'
p765
aa(lp766
S'IIT (BHU) Varanasi'
p767
aS'Ceramic Eng. (4 yrs; BTech)'
p768
aS'AI'
p769
aS'5836'
p770
aS'8712'
p771
aa(lp772
S'IIT Bhubaneswar'
p773
aS'Computer Science & Eng. (4 yrs; BTech)'
p774
aS'AI'
p775
aS'1497'
p776
aS'2783'
p777
aa(lp778
S'ISM Dhanbad'
p779
aS'Electrical Eng. (4 yrs; BTech)'
p780
aS'AI'
p781
aS'4273'
p782
aS'6418'
p783
aa(lp784
S'IIT Madras'
p785
aS'Biological Sciences (5 yrs; Bachelor of Science & Master of Science(Dual))'
p786
aS'AI'
p787
aS'6570'
p788
aS'9353'
p789
aa(lp790
S'IIT Bombay'
p791
aS'Electrical Eng. (4 yrs; BTech)'
p792
aS'AI'
p793
aS'22'
p794
aS'227'
p795
aa(lp796
S'IIT Patna'
p797
aS'Mechanical Eng. (4 yrs; BTech)'
p798
aS'AI'
p799
aS'4359'
p800
aS'6284'
p801
aa(lp802
S'IIT (BHU) Varanasi'
p803
aS'Electronics Eng. (4 yrs; BTech)'
p804
aS'AI'
p805
aS'1539'
p806
aS'2401'
p807
aa(lp808
S'IIT (BHU) Varanasi'
p809
aS'Chemical Eng. (4 yrs; BTech)'
p810
aS'AI'
p811
aS'3808'
p812
aS'5728'
p813
aa(lp814
S'IIT Gandhinagar'
p815
aS'Computer Science & Eng. (4 yrs; BTech)'
p816
aS'AI'
p817
aS'493'
p818
aS'1805'
p819
aa(lp820
S'IIT Guwahati'
p821
aS'Civil Eng. (4 yrs; BTech)'
p822
aS'AI'
p823
aS'4087'
p824
aS'5371'
p825
aa(lp826
S'ISM Dhanbad'
p827
aS'Mineral Eng. (4 yrs; BTech)'
p828
aS'AI'
p829
aS'7656'
p830
aS'9530'
p831
aa(lp832
S'IIT (BHU) Varanasi'
p833
aS'Mathematics & Computing (5 yrs; Integrated Master of Technology)'
p834
aS'AI'
p835
aS'1127'
p836
aS'1464'
p837
aa(lp838
S'IIT Ropar'
p839
aS'Electrical Eng. (4 yrs; BTech)'
p840
aS'AI'
p841
aS'3163'
p842
aS'3893'
p843
aa(lp844
S'IIT Kharagpur'
p845
aS'Electronics & Electrical Communication Eng. (4 yrs; BTech)'
p846
aS'AI'
p847
aS'329'
p848
aS'890'
p849
aa(lp850
S'IIT Dharwad'
p851
aS'Computer Science & Eng. (4 yrs; BTech)'
p852
aS'AI'
p853
aS'2914'
p854
aS'5644'
p855
aa(lp856
S'IIT Kanpur'
p857
aS'Civil Eng. (4 yrs; BTech)'
p858
aS'AI'
p859
aS'1571'
p860
aS'3333'
p861
aa(lp862
S'IIT Bombay'
p863
aS'Chemical Eng. (4 yrs; BTech)'
p864
aS'AI'
p865
aS'422'
p866
aS'1479'
p867
aa(lp868
S'IIT Madras'
p869
aS'Eng. Design (5 yrs; [B|M]Tech(Dual))'
p870
aS'AI'
p871
aS'1364'
p872
aS'5127'
p873
aa(lp874
S'IIT Delhi'
p875
aS'Eng. Physics (4 yrs; BTech)'
p876
aS'AI'
p877
aS'1074'
p878
aS'2809'
p879
aa(lp880
S'IIT Delhi'
p881
aS'Mathematics & Computing (4 yrs; BTech)'
p882
aS'AI'
p883
aS'250'
p884
aS'397'
p885
aa(lp886
S'IIT (BHU) Varanasi'
p887
aS'Pharmaceutics (5 yrs; Bachelor & Master of Pharmaceutics(Dual Degree))'
p888
aS'AI'
p889
aS'8101'
p890
aS'9873'
p891
aa(lp892
S'IIT Guwahati'
p893
aS'Computer Science & Eng. (4 yrs; BTech)'
p894
aS'AI'
p895
aS'406'
p896
aS'666'
p897
aa(lp898
S'IIT Kharagpur'
p899
aS'Exploration Geophysics (5 yrs; Integrated Master of Science)'
p900
aS'AI'
p901
aS'5566'
p902
aS'7242'
p903
aa(lp904
S'IIT (BHU) Varanasi'
p905
aS'Industrial Chemistry (5 yrs; Integrated Master of Technology)'
p906
aS'AI'
p907
aS'7089'
p908
aS'8781'
p909
aa(lp910
S'IIT Kharagpur'
p911
aS'Metallurgical & Materials Eng. (5 yrs; [B|M]Tech(Dual))'
p912
aS'AI'
p913
aS'4414'
p914
aS'4776'
p915
aa(lp916
S'IIT Madras'
p917
aS'Physics (5 yrs; Bachelor of Science & Master of Science(Dual))'
p918
aS'AI'
p919
aS'1736'
p920
aS'4116'
p921
aa(lp922
S'IIT Delhi'
p923
aS'Production & Industrial Eng. (4 yrs; BTech)'
p924
aS'AI'
p925
aS'1036'
p926
aS'2526'
p927
aa(lp928
S'IIT Patna'
p929
aS'Chemical Eng. (4 yrs; BTech)'
p930
aS'AI'
p931
aS'6560'
p932
aS'7891'
p933
aa(lp934
S'IIT Roorkee'
p935
aS'Applied Mathematics (5 yrs; Integrated Master of Science)'
p936
aS'AI'
p937
aS'1938'
p938
aS'3322'
p939
aa(lp940
S'IIT Bombay'
p941
aS'Mechanical Eng. (4 yrs; BTech)'
p942
aS'AI'
p943
aS'26'
p944
aS'777'
p945
aa(lp946
S'IIT (BHU) Varanasi'
p947
aS'Mechanical Eng. (5 yrs; [B|M]Tech(Dual))'
p948
aS'AI'
p949
aS'2876'
p950
aS'4036'
p951
aa(lp952
S'IIT (BHU) Varanasi'
p953
aS'Computer Science & Eng. (5 yrs; [B|M]Tech(Dual))'
p954
aS'AI'
p955
aS'778'
p956
aS'880'
p957
aa(lp958
S'ISM Dhanbad'
p959
aS'Applied Geology (5 yrs; Integrated Master of Technology)'
p960
aS'AI'
p961
aS'6547'
p962
aS'9502'
p963
aa(lp964
S'IIT Kharagpur'
p965
aS'Civil Eng. (4 yrs; BTech)'
p966
aS'AI'
p967
aS'2728'
p968
aS'3788'
p969
aa(lp970
S'IIT M&i'
p971
aS'Civil Eng. (4 yrs; BTech)'
p972
aS'AI'
p973
aS'6162'
p974
aS'7124'
p975
aa(lp976
S'IIT Kharagpur'
p977
aS'Mining Eng. (4 yrs; BTech)'
p978
aS'AI'
p979
aS'4440'
p980
aS'5502'
p981
aa(lp982
S'IIT Gandhinagar'
p983
aS'Civil Eng. (4 yrs; BTech)'
p984
aS'AI'
p985
aS'4607'
p986
aS'5892'
p987
aa(lp988
S'ISM Dhanbad'
p989
aS'Electronics & Instrumentation Eng. (4 yrs; BTech)'
p990
aS'AI'
p991
aS'5690'
p992
aS'6646'
p993
aa(lp994
S'IIT Madras'
p995
aS'Computer Science & Eng. (4 yrs; BTech)'
p996
aS'AI'
p997
aS'62'
p998
aS'173'
p999
aa(lp1000
S'IIT Madras'
p1001
aS'Naval Architecture & Ocean Eng. (4 yrs; BTech)'
p1002
aS'AI'
p1003
aS'3515'
p1004
aS'5319'
p1005
aa(lp1006
S'IIT Dharwad'
p1007
aS'Electrical Eng. (4 yrs; BTech)'
p1008
aS'AI'
p1009
aS'6504'
p1010
aS'8299'
p1011
aa(lp1012
S'IIT (BHU) Varanasi'
p1013
aS'Metallurgical Eng. (4 yrs; BTech)'
p1014
aS'AI'
p1015
aS'5462'
p1016
aS'6969'
p1017
aa(lp1018
S'IIT Madras'
p1019
aS'Biological Eng. (5 yrs; [B|M]Tech(Dual))'
p1020
aS'AI'
p1021
aS'2531'
p1022
aS'6368'
p1023
aa(lp1024
S'IIT Kharagpur'
p1025
aS'Quality Eng. Design & Manufacturing (5 yrs; [B|M]Tech(Dual))'
p1026
aS'AI'
p1027
aS'4496'
p1028
aS'4893'
p1029
aa(lp1030
S'IIT Kanpur'
p1031
aS'Chemistry (4 yrs; Bachelor of Science)'
p1032
aS'AI'
p1033
aS'4814'
p1034
aS'6084'
p1035
aa(lp1036
S'IIT Goa'
p1037
aS'Electrical Eng. (4 yrs; BTech)'
p1038
aS'AI'
p1039
aS'5503'
p1040
aS'6971'
p1041
aa(lp1042
S'IIT Kanpur'
p1043
aS'Computer Science & Eng. (4 yrs; BTech)'
p1044
aS'AI'
p1045
aS'113'
p1046
aS'230'
p1047
aa(lp1048
S'IIT Ropar'
p1049
aS'Mechanical Eng. (5 yrs; [B|M]Tech(Dual))'
p1050
aS'AI'
p1051
aS'4742'
p1052
aS'6123'
p1053
aa(lp1054
S'IIT Palakkad'
p1055
aS'Electrical Eng. (4 yrs; BTech)'
p1056
aS'AI'
p1057
aS'5566'
p1058
aS'6737'
p1059
aa(lp1060
S'IIT Kanpur'
p1061
aS'Physics (4 yrs; Bachelor of Science)'
p1062
aS'AI'
p1063
aS'619'
p1064
aS'3110'
p1065
aa(lp1066
S'IIT Madras'
p1067
aS'Electrical Eng. (5 yrs; [B|M]Tech(Dual))'
p1068
aS'AI'
p1069
aS'663'
p1070
aS'1212'
p1071
aa(lp1072
S'IIT Kharagpur'
p1073
aS'Electrical Eng. (4 yrs; BTech)'
p1074
aS'AI'
p1075
aS'138'
p1076
aS'1190'
p1077
aa(lp1078
S'IIT Kharagpur'
p1079
aS'Mathematics & Computing (5 yrs; Integrated Master of Science)'
p1080
aS'AI'
p1081
aS'1043'
p1082
aS'1386'
p1083
aa(lp1084
S'IIT Gandhinagar'
p1085
aS'Mechanical Eng. (4 yrs; BTech)'
p1086
aS'AI'
p1087
aS'2687'
p1088
aS'3658'
p1089
aa(lp1090
S'IIT Madras'
p1091
aS'Civil Eng. (4 yrs; BTech)'
p1092
aS'AI'
p1093
aS'1005'
p1094
aS'3703'
p1095
aa(lp1096
S'IIT Bhubaneswar'
p1097
aS'Metallurgical & Materials Eng. (4 yrs; BTech)'
p1098
aS'AI'
p1099
aS'6393'
p1100
aS'8482'
p1101
aa(lp1102
S'ISM Dhanbad'
p1103
aS'Eng. Physics (4 yrs; BTech)'
p1104
aS'AI'
p1105
aS'6879'
p1106
aS'8035'
p1107
aa(lp1108
S'IIT Kharagpur'
p1109
aS'Agricultural & Food Eng. with M.Tech. (5 yrs; [B|M]Tech(Dual))'
p1110
aS'AI'
p1111
aS'6306'
p1112
aS'7455'
p1113
aa(lp1114
S'ISM Dhanbad'
p1115
aS'Mining Eng. (4 yrs; BTech)'
p1116
aS'AI'
p1117
aS'6529'
p1118
aS'8685'
p1119
aa(lp1120
S'IIT Madras'
p1121
aS'Mechanical Eng. (4 yrs; BTech)'
p1122
aS'AI'
p1123
aS'535'
p1124
aS'1246'
p1125
aa(lp1126
S'IIT Guwahati'
p1127
aS'Electronics & Communication Eng. (4 yrs; BTech)'
p1128
aS'AI'
p1129
aS'1202'
p1130
aS'1873'
p1131
aa(lp1132
S'IIT Roorkee'
p1133
aS'Chemical Eng. (4 yrs; BTech)'
p1134
aS'AI'
p1135
aS'2383'
p1136
aS'4017'
p1137
aa(lp1138
S'IIT M&i'
p1139
aS'Electrical Eng. (4 yrs; BTech)'
p1140
aS'AI'
p1141
aS'3782'
p1142
aS'4904'
p1143
aa(lp1144
S'IIT Delhi'
p1145
aS'Civil Eng. (4 yrs; BTech)'
p1146
aS'AI'
p1147
aS'767'
p1148
aS'2618'
p1149
aa(lp1150
S'IIT Delhi'
p1151
aS'Biochemical Eng. & Biotechnology (5 yrs; [B|M]Tech(Dual))'
p1152
aS'AI'
p1153
aS'3787'
p1154
aS'4714'
p1155
aa(lp1156
S'IIT (BHU) Varanasi'
p1157
aS'Mining Eng. (5 yrs; [B|M]Tech(Dual))'
p1158
aS'AI'
p1159
aS'7432'
p1160
aS'8852'
p1161
aa(lp1162
S'IIT Kharagpur'
p1163
aS'Agricultural & Food Eng. (4 yrs; BTech)'
p1164
aS'AI'
p1165
aS'4321'
p1166
aS'6312'
p1167
aa(lp1168
S'IIT (BHU) Varanasi'
p1169
aS'Ceramic Eng. (5 yrs; [B|M]Tech(Dual))'
p1170
aS'AI'
p1171
aS'8730'
p1172
aS'9383'
p1173
aa(lp1174
S'IIT Bombay'
p1175
aS'Civil Eng. (4 yrs; BTech)'
p1176
aS'AI'
p1177
aS'897'
p1178
aS'2251'
p1179
aa(lp1180
S'IIT Tirupati'
p1181
aS'Electrical Eng. (4 yrs; BTech)'
p1182
aS'AI'
p1183
aS'4547'
p1184
aS'6568'
p1185
aa(lp1186
S'IIT Hyderabad'
p1187
aS'Materials Science & Metallurgical Eng. (4 yrs; BTech)'
p1188
aS'AI'
p1189
aS'5389'
p1190
aS'6844'
p1191
aa(lp1192
S'IIT Kharagpur'
p1193
aS'Architecture (5 yrs; Bachelor of Architecture)'
p1194
aS'AI'
p1195
aS'5783'
p1196
aS'10310'
p1197
aa(lp1198
S'IIT Kharagpur'
p1199
aS'Instrumentation Eng. (4 yrs; BTech)'
p1200
aS'AI'
p1201
aS'1663'
p1202
aS'2623'
p1203
aa(lp1204
S'IIT Delhi'
p1205
aS'Computer Science & Eng. (4 yrs; BTech)'
p1206
aS'AI'
p1207
aS'24'
p1208
aS'115'
p1209
aa(lp1210
S'ISM Dhanbad'
p1211
aS'Chemical Eng. (4 yrs; BTech)'
p1212
aS'AI'
p1213
aS'6288'
p1214
aS'8033'
p1215
aa(lp1216
S'IIT Tirupati'
p1217
aS'Computer Science & Eng. (4 yrs; BTech)'
p1218
aS'AI'
p1219
aS'2524'
p1220
aS'4539'
p1221
aa(lp1222
S'IIT Kharagpur'
p1223
aS'Aerospace Eng. (5 yrs; [B|M]Tech(Dual))'
p1224
aS'AI'
p1225
aS'2938'
p1226
aS'4033'
p1227
aa(lp1228
S'IIT Kanpur'
p1229
aS'Mechanical Eng. (4 yrs; BTech)'
p1230
aS'AI'
p1231
aS'841'
p1232
aS'1394'
p1233
aa(lp1234
S'IIT Bombay'
p1235
aS'Electrical Eng. with M.Tech. in Communications & Signal Processing (5 yrs; [B|M]Tech(Dual))'
p1236
aS'AI'
p1237
aS'249'
p1238
aS'583'
p1239
aa(lp1240
S'IIT Kharagpur'
p1241
aS'Civil Eng. with any of the listed specialization (5 yrs; [B|M]Tech(Dual))'
p1242
aS'AI'
p1243
aS'3559'
p1244
aS'4158'
p1245
aa(lp1246
S'IIT Kharagpur'
p1247
aS'Chemical Eng. (5 yrs; [B|M]Tech(Dual))'
p1248
aS'AI'
p1249
aS'3009'
p1250
aS'3606'
p1251
aa(lp1252
S'ISM Dhanbad'
p1253
aS'Computer Science & Eng. (4 yrs; BTech)'
p1254
aS'AI'
p1255
aS'1655'
p1256
aS'3479'
p1257
aa(lp1258
S'IIT Kharagpur'
p1259
aS'Aerospace Eng. (4 yrs; BTech)'
p1260
aS'AI'
p1261
aS'2864'
p1262
aS'3497'
p1263
aa(lp1264
S'IIT Kharagpur'
p1265
aS'Chemical Eng. (4 yrs; BTech)'
p1266
aS'AI'
p1267
aS'1906'
p1268
aS'2965'
p1269
aa(lp1270
S'IIT Tirupati'
p1271
aS'Civil Eng. (4 yrs; BTech)'
p1272
aS'AI'
p1273
aS'7101'
p1274
aS'8536'
p1275
aa(lp1276
S'IIT Tirupati'
p1277
aS'Mechanical Eng. (4 yrs; BTech)'
p1278
aS'AI'
p1279
aS'5691'
p1280
aS'7165'
p1281
aa(lp1282
S'IIT (BHU) Varanasi'
p1283
aS'Mining Eng. (4 yrs; BTech)'
p1284
aS'AI'
p1285
aS'6028'
p1286
aS'8573'
p1287
aa(lp1288
S'IIT Kharagpur'
p1289
aS'Physics (5 yrs; Integrated Master of Science)'
p1290
aS'AI'
p1291
aS'3404'
p1292
aS'5558'
p1293
aa(lp1294
S'ISM Dhanbad'
p1295
aS'Applied Geophysics (5 yrs; Integrated Master of Technology)'
p1296
aS'AI'
p1297
aS'6760'
p1298
aS'9589'
p1299
aa(lp1300
S'IIT Madras'
p1301
aS'Metallurgical & Materials Eng. (4 yrs; BTech)'
p1302
aS'AI'
p1303
aS'2917'
p1304
aS'4391'
p1305
aa(lp1306
S'IIT Kharagpur'
p1307
aS'Metallurgical & Materials Eng. (4 yrs; BTech)'
p1308
aS'AI'
p1309
aS'3373'
p1310
aS'4222'
p1311
aa(lp1312
S'IIT Palakkad'
p1313
aS'Computer Science & Eng. (4 yrs; BTech)'
p1314
aS'AI'
p1315
aS'2818'
p1316
aS'4981'
p1317
aa(lp1318
S'IIT Kharagpur'
p1319
aS'Industrial & Systems Eng. (4 yrs; BTech)'
p1320
aS'AI'
p1321
aS'2819'
p1322
aS'3442'
p1323
aa(lp1324
S'IIT Roorkee'
p1325
aS'Electronics & Communication Eng. (4 yrs; BTech)'
p1326
aS'AI'
p1327
aS'948'
p1328
aS'1441'
p1329
aa(lp1330
S'IIT Madras'
p1331
aS'Chemical Eng. (4 yrs; BTech)'
p1332
aS'AI'
p1333
aS'1548'
p1334
aS'3012'
p1335
aa(lp1336
S'IIT Bhilai'
p1337
aS'Mechanical Eng. (4 yrs; BTech)'
p1338
aS'AI'
p1339
aS'6128'
p1340
aS'8379'
p1341
aa(lp1342
S'IIT Kharagpur'
p1343
aS'Mechanical Eng. (4 yrs; BTech)'
p1344
aS'AI'
p1345
aS'622'
p1346
aS'1560'
p1347
aa(lp1348
S'IIT Kanpur'
p1349
aS'Chemical Eng. (4 yrs; BTech)'
p1350
aS'AI'
p1351
aS'1713'
p1352
aS'2569'
p1353
aa(lp1354
S'IIT Hyderabad'
p1355
aS'Chemical Eng. (4 yrs; BTech)'
p1356
aS'AI'
p1357
aS'3903'
p1358
aS'5869'
p1359
aa(lp1360
S'IIT Bhubaneswar'
p1361
aS'Mechanical Eng. & M. Tech. in Mechanical System Design (5 yrs; [B|M]Tech(Dual))'
p1362
aS'AI'
p1363
aS'5708'
p1364
aS'6399'
p1365
aa(lp1366
S'IIT Kanpur'
p1367
aS'Materials Science & Eng. (4 yrs; BTech)'
p1368
aS'AI'
p1369
aS'3030'
p1370
aS'4148'
p1371
aa(lp1372
S'IIT Hyderabad'
p1373
aS'Electrical Eng. (4 yrs; BTech)'
p1374
aS'AI'
p1375
aS'1393'
p1376
aS'2079'
p1377
aa(lp1378
S'ISM Dhanbad'
p1379
aS'Mechanical Eng. (4 yrs; BTech)'
p1380
aS'AI'
p1381
aS'3389'
p1382
aS'6400'
p1383
aa(lp1384
S'IIT Jodhpur'
p1385
aS'Computer Science & Eng. (4 yrs; BTech)'
p1386
aS'AI'
p1387
aS'699'
p1388
aS'2704'
p1389
aa(lp1390
S'IIT Madras'
p1391
aS'Naval Architecture & Ocean Eng. (5 yrs; [B|M]Tech(Dual))'
p1392
aS'AI'
p1393
aS'5222'
p1394
aS'5870'
p1395
aa(lp1396
S'IIT Guwahati'
p1397
aS'Electronics & Electrical Eng. (4 yrs; BTech)'
p1398
aS'AI'
p1399
aS'1471'
p1400
aS'2127'
p1401
aa(lp1402
S'IIT Kharagpur'
p1403
aS'Chemistry (5 yrs; Integrated Master of Science)'
p1404
aS'AI'
p1405
aS'3979'
p1406
aS'8727'
p1407
aa(lp1408
S'IIT Kanpur'
p1409
aS'Biological Sciences & BioEng. (4 yrs; BTech)'
p1410
aS'AI'
p1411
aS'3578'
p1412
aS'5433'
p1413
aasS'name'
p1414
S'a6'
p1415
sb.